
build/telosb/main.exe:     file format elf32-msp430


Disassembly of section .text:

00004000 <__init_stack>:
    4000:	31 40 00 39 	mov	#14592,	r1	;#0x3900

00004004 <__low_level_init>:
    4004:	15 42 20 01 	mov	&0x0120,r5	
    4008:	75 f3       	and.b	#-1,	r5	;r3 As==11
    400a:	35 d0 08 5a 	bis	#23048,	r5	;#0x5a08

0000400e <__do_copy_data>:
    400e:	3f 40 10 00 	mov	#16,	r15	;#0x0010
    4012:	0f 93       	tst	r15		
    4014:	07 24       	jz	$+16     	;abs 0x4024
    4016:	82 45 20 01 	mov	r5,	&0x0120	
    401a:	2f 83       	decd	r15		
    401c:	9f 4f 94 7f 00 11 	mov	32660(r15),4352(r15);0x7f94(r15), 0x1100(r15)
    4022:	f9 23       	jnz	$-12     	;abs 0x4016

00004024 <__do_clear_bss>:
    4024:	3f 40 66 02 	mov	#614,	r15	;#0x0266
    4028:	0f 93       	tst	r15		
    402a:	06 24       	jz	$+14     	;abs 0x4038
    402c:	82 45 20 01 	mov	r5,	&0x0120	
    4030:	1f 83       	dec	r15		
    4032:	cf 43 10 11 	mov.b	#0,	4368(r15);r3 As==00, 0x1110(r15)
    4036:	fa 23       	jnz	$-10     	;abs 0x402c

00004038 <main>:
    4038:	21 83       	decd	r1		
    403a:	09 42       	mov	r2,	r9	
    403c:	39 f2       	and	#8,	r9	;r2 As==11
    403e:	32 c2       	dint			
    4040:	03 43       	nop			
    4042:	3d 40 0d 00 	mov	#13,	r13	;#0x000d
    4046:	3e 40 ff 00 	mov	#255,	r14	;#0x00ff
    404a:	3f 40 5a 11 	mov	#4442,	r15	;#0x115a
    404e:	b0 12 60 7e 	call	#0x7e60	
    4052:	f2 43 33 13 	mov.b	#-1,	&0x1333	;r3 As==11
    4056:	f2 43 6f 13 	mov.b	#-1,	&0x136f	;r3 As==11
    405a:	b2 40 80 5a 20 01 	mov	#23168,	&0x0120	;#0x5a80
    4060:	a2 42 60 01 	mov	#4,	&0x0160	;r2 As==10
    4064:	a2 42 80 01 	mov	#4,	&0x0180	;r2 As==10
    4068:	b2 40 20 02 60 01 	mov	#544,	&0x0160	;#0x0220
    406e:	b2 40 20 01 80 01 	mov	#288,	&0x0180	;#0x0120
    4074:	f2 40 84 ff 57 00 	mov.b	#-124,	&0x0057	;#0xff84
    407a:	c2 43 58 00 	mov.b	#0,	&0x0058	;r3 As==00
    407e:	b2 40 00 40 82 01 	mov	#16384,	&0x0182	;#0x4000
    4084:	38 40 0b 00 	mov	#11,	r8	;#0x000b
    4088:	3b 40 00 04 	mov	#1024,	r11	;#0x0400
    408c:	0a 43       	clr	r10		
    408e:	06 4b       	mov	r11,	r6	
    4090:	07 4b       	mov	r11,	r7	
    4092:	07 da       	bis	r10,	r7	
    4094:	0f 47       	mov	r7,	r15	
    4096:	b0 12 12 48 	call	#0x4812	
    409a:	0e 43       	clr	r14		
    409c:	0f 4e       	mov	r14,	r15	
    409e:	2d 43       	mov	#2,	r13	;r3 As==10
    40a0:	0e 3c       	jmp	$+30     	;abs 0x40be
    40a2:	1f 42 90 01 	mov	&0x0190,r15	
    40a6:	3f 52       	add	#8,	r15	;r2 As==11
    40a8:	82 4f 92 01 	mov	r15,	&0x0192	
    40ac:	b2 f0 fe ff 82 01 	and	#-2,	&0x0182	;#0xfffe
    40b2:	92 b3 82 01 	bit	#1,	&0x0182	;r3 As==01
    40b6:	fd 27       	jz	$-4      	;abs 0x40b2
    40b8:	0f 4e       	mov	r14,	r15	
    40ba:	1e 42 70 01 	mov	&0x0170,r14	
    40be:	3d 53       	add	#-1,	r13	;r3 As==11
    40c0:	3d 93       	cmp	#-1,	r13	;r3 As==11
    40c2:	ef 23       	jnz	$-32     	;abs 0x40a2
    40c4:	0e 8f       	sub	r15,	r14	
    40c6:	06 9e       	cmp	r14,	r6	
    40c8:	01 28       	jnc	$+4      	;abs 0x40cc
    40ca:	0a 47       	mov	r7,	r10	
    40cc:	0f 4a       	mov	r10,	r15	
    40ce:	3f f0 e0 00 	and	#224,	r15	;#0x00e0
    40d2:	3f 90 e0 00 	cmp	#224,	r15	;#0x00e0
    40d6:	04 24       	jz	$+10     	;abs 0x40e0
    40d8:	12 c3       	clrc			
    40da:	0b 10       	rrc	r11		
    40dc:	38 53       	add	#-1,	r8	;r3 As==11
    40de:	d8 23       	jnz	$-78     	;abs 0x4090
    40e0:	0f 4a       	mov	r10,	r15	
    40e2:	b0 12 12 48 	call	#0x4812	
    40e6:	5f 42 57 00 	mov.b	&0x0057,r15	
    40ea:	7f f0 07 00 	and.b	#7,	r15	;#0x0007
    40ee:	7f d0 80 ff 	bis.b	#-128,	r15	;#0xff80
    40f2:	c2 4f 57 00 	mov.b	r15,	&0x0057	
    40f6:	e2 42 58 00 	mov.b	#4,	&0x0058	;r2 As==10
    40fa:	f2 f0 fd ff 00 00 	and.b	#-3,	&0x0000	;#0xfffd
    4100:	82 43 70 01 	mov	#0,	&0x0170	;r3 As==00
    4104:	b2 40 02 02 60 01 	mov	#514,	&0x0160	;#0x0202
    410a:	82 43 90 01 	mov	#0,	&0x0190	;r3 As==00
    410e:	b2 40 02 01 80 01 	mov	#258,	&0x0180	;#0x0102
    4114:	1f 42 60 01 	mov	&0x0160,r15	
    4118:	3f f0 cf ff 	and	#-49,	r15	;#0xffcf
    411c:	3f d0 20 00 	bis	#32,	r15	;#0x0020
    4120:	82 4f 60 01 	mov	r15,	&0x0160	
    4124:	1f 42 80 01 	mov	&0x0180,r15	
    4128:	3f f0 cf ff 	and	#-49,	r15	;#0xffcf
    412c:	3f d0 20 00 	bis	#32,	r15	;#0x0020
    4130:	82 4f 80 01 	mov	r15,	&0x0180	
    4134:	f2 d0 10 00 31 00 	bis.b	#16,	&0x0031	;#0x0010
    413a:	f2 d0 20 00 31 00 	bis.b	#32,	&0x0031	;#0x0020
    4140:	f2 d0 40 00 31 00 	bis.b	#64,	&0x0031	;#0x0040
    4146:	f2 d0 10 00 32 00 	bis.b	#16,	&0x0032	;#0x0010
    414c:	f2 d0 20 00 32 00 	bis.b	#32,	&0x0032	;#0x0020
    4152:	f2 d0 40 00 32 00 	bis.b	#64,	&0x0032	;#0x0040
    4158:	f2 f0 fb ff 1a 00 	and.b	#-5,	&0x001a	;#0xfffb
    415e:	f2 f0 fd ff 1a 00 	and.b	#-3,	&0x001a	;#0xfffd
    4164:	f2 f0 f7 ff 1a 00 	and.b	#-9,	&0x001a	;#0xfff7
    416a:	f2 f0 fb ff 32 00 	and.b	#-5,	&0x0032	;#0xfffb
    4170:	f2 f0 fd ff 32 00 	and.b	#-3,	&0x0032	;#0xfffd
    4176:	f2 f0 f7 ff 32 00 	and.b	#-9,	&0x0032	;#0xfff7
    417c:	f2 d0 40 00 1d 00 	bis.b	#64,	&0x001d	;#0x0040
    4182:	f2 d0 40 00 1e 00 	bis.b	#64,	&0x001e	;#0x0040
    4188:	f2 f0 df ff 1d 00 	and.b	#-33,	&0x001d	;#0xffdf
    418e:	f2 d0 20 00 1e 00 	bis.b	#32,	&0x001e	;#0x0020
    4194:	e2 d2 1d 00 	bis.b	#4,	&0x001d	;r2 As==10
    4198:	e2 d2 1e 00 	bis.b	#4,	&0x001e	;r2 As==10
    419c:	f2 f0 fe ff 22 00 	and.b	#-2,	&0x0022	;#0xfffe
    41a2:	f2 f0 f7 ff 22 00 	and.b	#-9,	&0x0022	;#0xfff7
    41a8:	f2 f0 fd ff 1e 00 	and.b	#-3,	&0x001e	;#0xfffd
    41ae:	f2 f0 ef ff 22 00 	and.b	#-17,	&0x0022	;#0xffef
    41b4:	f2 f0 ef ff 1a 00 	and.b	#-17,	&0x001a	;#0xffef
    41ba:	f2 f0 df ff 1a 00 	and.b	#-33,	&0x001a	;#0xffdf
    41c0:	f2 f0 bf ff 1a 00 	and.b	#-65,	&0x001a	;#0xffbf
    41c6:	f2 f0 7f 00 1a 00 	and.b	#127,	&0x001a	;#0x007f
    41cc:	f2 f0 fd ff 22 00 	and.b	#-3,	&0x0022	;#0xfffd
    41d2:	f2 f0 fb ff 2a 00 	and.b	#-5,	&0x002a	;#0xfffb
    41d8:	f2 d2 1e 00 	bis.b	#8,	&0x001e	;r2 As==11
    41dc:	f2 d2 1d 00 	bis.b	#8,	&0x001d	;r2 As==11
    41e0:	f2 d0 10 00 1e 00 	bis.b	#16,	&0x001e	;#0x0010
    41e6:	f2 d0 10 00 1d 00 	bis.b	#16,	&0x001d	;#0x0010
    41ec:	f2 d0 40 00 22 00 	bis.b	#64,	&0x0022	;#0x0040
    41f2:	f2 d0 20 00 22 00 	bis.b	#32,	&0x0022	;#0x0020
    41f8:	f2 d0 80 ff 22 00 	bis.b	#-128,	&0x0022	;#0xff80
    41fe:	f2 f0 bf ff 21 00 	and.b	#-65,	&0x0021	;#0xffbf
    4204:	f2 f0 df ff 21 00 	and.b	#-33,	&0x0021	;#0xffdf
    420a:	f2 f0 7f 00 21 00 	and.b	#127,	&0x0021	;#0x007f
    4210:	f2 d0 10 00 32 00 	bis.b	#16,	&0x0032	;#0x0010
    4216:	f2 d0 20 00 32 00 	bis.b	#32,	&0x0032	;#0x0020
    421c:	f2 d0 40 00 32 00 	bis.b	#64,	&0x0032	;#0x0040
    4222:	f2 d0 10 00 31 00 	bis.b	#16,	&0x0031	;#0x0010
    4228:	f2 d0 20 00 31 00 	bis.b	#32,	&0x0031	;#0x0020
    422e:	f2 d0 40 00 31 00 	bis.b	#64,	&0x0031	;#0x0040
    4234:	b0 12 10 6c 	call	#0x6c10	
    4238:	4b 4f       	mov.b	r15,	r11	
    423a:	4f 93       	tst.b	r15		
    423c:	fb 23       	jnz	$-8      	;abs 0x4234
    423e:	f2 43 a0 11 	mov.b	#-1,	&0x11a0	;r3 As==11
    4242:	b2 43 3a 11 	mov	#-1,	&0x113a	;r3 As==11
    4246:	c2 4f 3c 11 	mov.b	r15,	&0x113c	
    424a:	b2 43 3e 11 	mov	#-1,	&0x113e	;r3 As==11
    424e:	c2 4f 40 11 	mov.b	r15,	&0x1140	
    4252:	b2 43 42 11 	mov	#-1,	&0x1142	;r3 As==11
    4256:	c2 4f 44 11 	mov.b	r15,	&0x1144	
    425a:	b2 43 46 11 	mov	#-1,	&0x1146	;r3 As==11
    425e:	c2 4f 48 11 	mov.b	r15,	&0x1148	
    4262:	b0 12 3a 46 	call	#0x463a	
    4266:	c2 4f e2 12 	mov.b	r15,	&0x12e2	
    426a:	1f 42 00 11 	mov	&0x1100,r15	
    426e:	1f 53       	inc	r15		
    4270:	82 4f dc 11 	mov	r15,	&0x11dc	
    4274:	82 43 de 11 	mov	#0,	&0x11de	;r3 As==00
    4278:	b2 40 0c 13 28 11 	mov	#4876,	&0x1128	;#0x130c
    427e:	f2 f0 ef ff 22 00 	and.b	#-17,	&0x0022	;#0xffef
    4284:	b0 12 04 47 	call	#0x4704	
    4288:	f2 f0 fd ff 1e 00 	and.b	#-3,	&0x001e	;#0xfffd
    428e:	b0 12 cc 45 	call	#0x45cc	
    4292:	b2 40 00 40 86 01 	mov	#16384,	&0x0186	;#0x4000
    4298:	f2 43 10 12 	mov.b	#-1,	&0x1210	;r3 As==11
    429c:	f2 43 11 12 	mov.b	#-1,	&0x1211	;r3 As==11
    42a0:	c2 4b a0 12 	mov.b	r11,	&0x12a0	
    42a4:	c2 4b a1 12 	mov.b	r11,	&0x12a1	
    42a8:	c2 4b a2 12 	mov.b	r11,	&0x12a2	
    42ac:	c2 4b a3 12 	mov.b	r11,	&0x12a3	
    42b0:	b0 12 04 47 	call	#0x4704	
    42b4:	f2 d0 40 00 1e 00 	bis.b	#64,	&0x001e	;#0x0040
    42ba:	f2 d0 20 00 1e 00 	bis.b	#32,	&0x001e	;#0x0020
    42c0:	b0 12 42 4f 	call	#0x4f42	
    42c4:	82 4f 1a 12 	mov	r15,	&0x121a	
    42c8:	b0 12 88 48 	call	#0x4888	
    42cc:	82 4c d6 12 	mov	r12,	&0x12d6	
    42d0:	82 4d d8 12 	mov	r13,	&0x12d8	
    42d4:	82 4e da 12 	mov	r14,	&0x12da	
    42d8:	82 4f dc 12 	mov	r15,	&0x12dc	
    42dc:	d2 42 0c 11 d2 11 	mov.b	&0x110c,&0x11d2	
    42e2:	c2 4b d3 11 	mov.b	r11,	&0x11d3	
    42e6:	f2 40 1f 00 9e 12 	mov.b	#31,	&0x129e	;#0x001f
    42ec:	f2 40 1a 00 e0 12 	mov.b	#26,	&0x12e0	;#0x001a
    42f2:	b0 12 88 48 	call	#0x4888	
    42f6:	82 4c d6 12 	mov	r12,	&0x12d6	
    42fa:	82 4d d8 12 	mov	r13,	&0x12d8	
    42fe:	82 4e da 12 	mov	r14,	&0x12da	
    4302:	82 4f dc 12 	mov	r15,	&0x12dc	
    4306:	3f 40 d6 12 	mov	#4822,	r15	;#0x12d6
    430a:	0e 4f       	mov	r15,	r14	
    430c:	3e 50 07 00 	add	#7,	r14	;#0x0007
    4310:	6d 4f       	mov.b	@r15,	r13	
    4312:	ef 4e 00 00 	mov.b	@r14,	0(r15)	;0x0000(r15)
    4316:	ce 4d 00 00 	mov.b	r13,	0(r14)	;0x0000(r14)
    431a:	1f 53       	inc	r15		
    431c:	3e 53       	add	#-1,	r14	;r3 As==11
    431e:	3f 90 da 12 	cmp	#4826,	r15	;#0x12da
    4322:	f6 23       	jnz	$-18     	;abs 0x4310
    4324:	d2 43 9a 11 	mov.b	#1,	&0x119a	;r3 As==01
    4328:	c2 43 42 13 	mov.b	#0,	&0x1342	;r3 As==00
    432c:	d2 43 d4 11 	mov.b	#1,	&0x11d4	;r3 As==01
    4330:	c2 43 d4 12 	mov.b	#0,	&0x12d4	;r3 As==00
    4334:	b0 12 36 45 	call	#0x4536	
    4338:	b2 40 00 40 82 01 	mov	#16384,	&0x0182	;#0x4000
    433e:	b0 12 10 6c 	call	#0x6c10	
    4342:	4f 93       	tst.b	r15		
    4344:	fc 23       	jnz	$-6      	;abs 0x433e
    4346:	09 93       	tst	r9		
    4348:	01 24       	jz	$+4      	;abs 0x434c
    434a:	32 d2       	eint			
    434c:	32 d2       	eint			
    434e:	0f 42       	mov	r2,	r15	
    4350:	32 c2       	dint			
    4352:	03 43       	nop			
    4354:	f2 f0 7f 00 2a 00 	and.b	#127,	&0x002a	;#0x007f
    435a:	3f f2       	and	#8,	r15	;r2 As==11
    435c:	01 24       	jz	$+4      	;abs 0x4360
    435e:	32 d2       	eint			
    4360:	5f 42 28 00 	mov.b	&0x0028,r15	
    4364:	7f f0 80 ff 	and.b	#-128,	r15	;#0xff80
    4368:	04 24       	jz	$+10     	;abs 0x4372
    436a:	d2 43 9a 12 	mov.b	#1,	&0x129a	;r3 As==01
    436e:	4f 43       	clr.b	r15		
    4370:	03 3c       	jmp	$+8      	;abs 0x4378
    4372:	c2 4f 9a 12 	mov.b	r15,	&0x129a	
    4376:	5f 43       	mov.b	#1,	r15	;r3 As==01
    4378:	b0 12 f4 52 	call	#0x52f4	
    437c:	5f 43       	mov.b	#1,	r15	;r3 As==01
    437e:	b0 12 60 55 	call	#0x5560	
    4382:	0f 93       	tst	r15		
    4384:	1f 20       	jnz	$+64     	;abs 0x43c4
    4386:	0e 42       	mov	r2,	r14	
    4388:	3e f2       	and	#8,	r14	;r2 As==11
    438a:	32 c2       	dint			
    438c:	03 43       	nop			
    438e:	82 9f 1a 11 	cmp	r15,	&0x111a	
    4392:	04 24       	jz	$+10     	;abs 0x439c
    4394:	0e 93       	tst	r14		
    4396:	20 24       	jz	$+66     	;abs 0x43d8
    4398:	32 d2       	eint			
    439a:	1e 3c       	jmp	$+62     	;abs 0x43d8
    439c:	92 43 1a 11 	mov	#1,	&0x111a	;r3 As==01
    43a0:	0e 93       	tst	r14		
    43a2:	01 24       	jz	$+4      	;abs 0x43a6
    43a4:	32 d2       	eint			
    43a6:	0f 42       	mov	r2,	r15	
    43a8:	32 c2       	dint			
    43aa:	03 43       	nop			
    43ac:	f2 d0 20 00 1d 00 	bis.b	#32,	&0x001d	;#0x0020
    43b2:	3f f2       	and	#8,	r15	;r2 As==11
    43b4:	01 24       	jz	$+4      	;abs 0x43b8
    43b6:	32 d2       	eint			
    43b8:	3e 40 14 00 	mov	#20,	r14	;#0x0014
    43bc:	0f 43       	clr	r15		
    43be:	b0 12 b4 4d 	call	#0x4db4	
    43c2:	0a 3c       	jmp	$+22     	;abs 0x43d8
    43c4:	6e 43       	mov.b	#2,	r14	;r3 As==10
    43c6:	5f 43       	mov.b	#1,	r15	;r3 As==01
    43c8:	b0 12 a2 4a 	call	#0x4aa2	
    43cc:	4f 93       	tst.b	r15		
    43ce:	04 20       	jnz	$+10     	;abs 0x43d8
    43d0:	5e 43       	mov.b	#1,	r14	;r3 As==01
    43d2:	4f 4e       	mov.b	r14,	r15	
    43d4:	b0 12 a2 4a 	call	#0x4aa2	
    43d8:	6a 42       	mov.b	#4,	r10	;r2 As==10
    43da:	0b 42       	mov	r2,	r11	
    43dc:	3b f2       	and	#8,	r11	;r2 As==11
    43de:	32 c2       	dint			
    43e0:	03 43       	nop			
    43e2:	7a 3c       	jmp	$+246    	;abs 0x44d8
    43e4:	c2 93 04 11 	tst.b	&0x1104	
    43e8:	6b 24       	jz	$+216    	;abs 0x44c0
    43ea:	1e 42 62 01 	mov	&0x0162,r14	
    43ee:	3e f0 10 00 	and	#16,	r14	;#0x0010
    43f2:	0c 20       	jnz	$+26     	;abs 0x440c
    43f4:	1f 42 64 01 	mov	&0x0164,r15	
    43f8:	3f f0 10 00 	and	#16,	r15	;#0x0010
    43fc:	0f 9e       	cmp	r14,	r15	
    43fe:	06 20       	jnz	$+14     	;abs 0x440c
    4400:	1e 42 66 01 	mov	&0x0166,r14	
    4404:	3e f0 10 00 	and	#16,	r14	;#0x0010
    4408:	0e 9f       	cmp	r15,	r14	
    440a:	07 24       	jz	$+16     	;abs 0x441a
    440c:	1f 42 60 01 	mov	&0x0160,r15	
    4410:	3f f0 00 03 	and	#768,	r15	;#0x0300
    4414:	3f 90 00 02 	cmp	#512,	r15	;#0x0200
    4418:	31 24       	jz	$+100    	;abs 0x447c
    441a:	5f 42 04 00 	mov.b	&0x0004,r15	
    441e:	3f f0 c0 00 	and	#192,	r15	;#0x00c0
    4422:	05 24       	jz	$+12     	;abs 0x442e
    4424:	5f 42 71 00 	mov.b	&0x0071,r15	
    4428:	3f f0 20 00 	and	#32,	r15	;#0x0020
    442c:	27 20       	jnz	$+80     	;abs 0x447c
    442e:	5f 42 05 00 	mov.b	&0x0005,r15	
    4432:	3f f0 30 00 	and	#48,	r15	;#0x0030
    4436:	05 24       	jz	$+12     	;abs 0x4442
    4438:	5f 42 79 00 	mov.b	&0x0079,r15	
    443c:	3f f0 20 00 	and	#32,	r15	;#0x0020
    4440:	1d 20       	jnz	$+60     	;abs 0x447c
    4442:	5f 42 70 00 	mov.b	&0x0070,r15	
    4446:	1f f3       	and	#1,	r15	;r3 As==01
    4448:	16 24       	jz	$+46     	;abs 0x4476
    444a:	5f 42 71 00 	mov.b	&0x0071,r15	
    444e:	3f f0 20 00 	and	#32,	r15	;#0x0020
    4452:	11 24       	jz	$+36     	;abs 0x4476
    4454:	5f 42 72 00 	mov.b	&0x0072,r15	
    4458:	3f f0 20 00 	and	#32,	r15	;#0x0020
    445c:	0c 24       	jz	$+26     	;abs 0x4476
    445e:	5f 42 70 00 	mov.b	&0x0070,r15	
    4462:	2f f2       	and	#4,	r15	;r2 As==10
    4464:	08 24       	jz	$+18     	;abs 0x4476
    4466:	5f 42 70 00 	mov.b	&0x0070,r15	
    446a:	3f f0 20 00 	and	#32,	r15	;#0x0020
    446e:	06 20       	jnz	$+14     	;abs 0x447c
    4470:	7f 50 05 00 	add.b	#5,	r15	;#0x0005
    4474:	04 3c       	jmp	$+10     	;abs 0x447e
    4476:	7f 40 05 00 	mov.b	#5,	r15	;#0x0005
    447a:	01 3c       	jmp	$+4      	;abs 0x447e
    447c:	6f 43       	mov.b	#2,	r15	;r3 As==10
    447e:	b2 b0 10 00 a0 01 	bit	#16,	&0x01a0	;#0x0010
    4484:	18 24       	jz	$+50     	;abs 0x44b6
    4486:	1e 42 a2 01 	mov	&0x01a2,r14	
    448a:	3e f0 10 00 	and	#16,	r14	;#0x0010
    448e:	05 24       	jz	$+12     	;abs 0x449a
    4490:	1f 42 a2 01 	mov	&0x01a2,r15	
    4494:	3f f2       	and	#8,	r15	;r2 As==11
    4496:	12 24       	jz	$+38     	;abs 0x44bc
    4498:	0d 3c       	jmp	$+28     	;abs 0x44b4
    449a:	1d 42 a2 01 	mov	&0x01a2,r13	
    449e:	3d f0 00 04 	and	#1024,	r13	;#0x0400
    44a2:	0d 9e       	cmp	r14,	r13	
    44a4:	08 24       	jz	$+18     	;abs 0x44b6
    44a6:	1e 42 60 01 	mov	&0x0160,r14	
    44aa:	3e f0 00 03 	and	#768,	r14	;#0x0300
    44ae:	3e 90 00 02 	cmp	#512,	r14	;#0x0200
    44b2:	01 20       	jnz	$+4      	;abs 0x44b6
    44b4:	6f 43       	mov.b	#2,	r15	;r3 As==10
    44b6:	4a 9f       	cmp.b	r15,	r10	
    44b8:	01 2c       	jc	$+4      	;abs 0x44bc
    44ba:	6f 42       	mov.b	#4,	r15	;r2 As==10
    44bc:	c2 4f 16 11 	mov.b	r15,	&0x1116	
    44c0:	5f 42 16 11 	mov.b	&0x1116,r15	
    44c4:	0f 5f       	rla	r15		
    44c6:	1f 4f 56 6f 	mov	28502(r15),r15	;0x6f56(r15)
    44ca:	3f d2       	bis	#8,	r15	;r2 As==11
    44cc:	81 4f 00 00 	mov	r15,	0(r1)	;0x0000(r1)
    44d0:	22 d1       	bis	@r1,	r2	
    44d2:	32 c2       	dint			
    44d4:	03 43       	nop			
    44d6:	03 43       	nop			
    44d8:	b0 12 44 47 	call	#0x4744	
    44dc:	7f 93       	cmp.b	#-1,	r15	;r3 As==11
    44de:	82 27       	jz	$-250    	;abs 0x43e4
    44e0:	0b 93       	tst	r11		
    44e2:	01 24       	jz	$+4      	;abs 0x44e6
    44e4:	32 d2       	eint			
    44e6:	b0 12 44 62 	call	#0x6244	
    44ea:	77 3f       	jmp	$-272    	;abs 0x43da

000044ec <__stop_progExec__>:
    44ec:	32 d0 f0 00 	bis	#240,	r2	;#0x00f0
    44f0:	fd 3f       	jmp	$-4      	;abs 0x44ec

000044f2 <__ctors_end>:
    44f2:	30 40 92 7f 	br	#0x7f92	

000044f6 <Msp430TimerP__0__Event__fired>:
    44f6:	5f 93       	cmp.b	#1,	r15	;r3 As==01
    44f8:	0e 24       	jz	$+30     	;abs 0x4516
    44fa:	4f 93       	tst.b	r15		
    44fc:	03 24       	jz	$+8      	;abs 0x4504
    44fe:	6f 93       	cmp.b	#2,	r15	;r3 As==10
    4500:	19 20       	jnz	$+52     	;abs 0x4534
    4502:	11 3c       	jmp	$+36     	;abs 0x4526
    4504:	1e 42 62 01 	mov	&0x0162,r14	
    4508:	8e 10       	swpb	r14		
    450a:	5e f3       	and.b	#1,	r14	;r3 As==01
    450c:	4e 9f       	cmp.b	r15,	r14	
    450e:	12 24       	jz	$+38     	;abs 0x4534
    4510:	1f 42 72 01 	mov	&0x0172,r15	
    4514:	30 41       	ret			
    4516:	1f 42 64 01 	mov	&0x0164,r15	
    451a:	8f 10       	swpb	r15		
    451c:	5f f3       	and.b	#1,	r15	;r3 As==01
    451e:	0a 24       	jz	$+22     	;abs 0x4534
    4520:	1f 42 74 01 	mov	&0x0174,r15	
    4524:	30 41       	ret			
    4526:	1f 42 66 01 	mov	&0x0166,r15	
    452a:	8f 10       	swpb	r15		
    452c:	5f f3       	and.b	#1,	r15	;r3 As==01
    452e:	02 24       	jz	$+6      	;abs 0x4534
    4530:	1f 42 76 01 	mov	&0x0176,r15	
    4534:	30 41       	ret			

00004536 <Msp430AlarmC__0__Msp430TimerControl__disableEvents>:
    4536:	b2 f0 ef ff 82 01 	and	#-17,	&0x0182	;#0xffef
    453c:	30 41       	ret			

0000453e <__nesc_ntoh_leuint16>:
    453e:	5e 4f 01 00 	mov.b	1(r15),	r14	;0x0001(r15)
    4542:	8e 10       	swpb	r14		
    4544:	6f 4f       	mov.b	@r15,	r15	
    4546:	0f de       	bis	r14,	r15	
    4548:	30 41       	ret			

0000454a <__nesc_hton_uint32>:
    454a:	0b 12       	push	r11		
    454c:	0a 12       	push	r10		
    454e:	0a 4d       	mov	r13,	r10	
    4550:	0b 4e       	mov	r14,	r11	
    4552:	cf 4d 03 00 	mov.b	r13,	3(r15)	;0x0003(r15)
    4556:	0c 4d       	mov	r13,	r12	
    4558:	0d 4e       	mov	r14,	r13	
    455a:	8c 10       	swpb	r12		
    455c:	8d 10       	swpb	r13		
    455e:	4c ed       	xor.b	r13,	r12	
    4560:	0c ed       	xor	r13,	r12	
    4562:	7d f3       	and.b	#-1,	r13	;r3 As==11
    4564:	cf 4c 02 00 	mov.b	r12,	2(r15)	;0x0002(r15)
    4568:	cf 4e 01 00 	mov.b	r14,	1(r15)	;0x0001(r15)
    456c:	8e 10       	swpb	r14		
    456e:	cf 4e 00 00 	mov.b	r14,	0(r15)	;0x0000(r15)
    4572:	0e 4a       	mov	r10,	r14	
    4574:	0f 4b       	mov	r11,	r15	
    4576:	3a 41       	pop	r10		
    4578:	3b 41       	pop	r11		
    457a:	30 41       	ret			

0000457c <__nesc_ntoh_uint32>:
    457c:	0b 12       	push	r11		
    457e:	0a 12       	push	r10		
    4580:	09 12       	push	r9		
    4582:	09 4f       	mov	r15,	r9	
    4584:	5c 4f 03 00 	mov.b	3(r15),	r12	;0x0003(r15)
    4588:	0d 43       	clr	r13		
    458a:	6f 49       	mov.b	@r9,	r15	
    458c:	0e 4d       	mov	r13,	r14	
    458e:	3f f0 ff 00 	and	#255,	r15	;#0x00ff
    4592:	8f 10       	swpb	r15		
    4594:	0e dc       	bis	r12,	r14	
    4596:	0f dd       	bis	r13,	r15	
    4598:	5d 49 01 00 	mov.b	1(r9),	r13	;0x0001(r9)
    459c:	0c 43       	clr	r12		
    459e:	0e dc       	bis	r12,	r14	
    45a0:	0f dd       	bis	r13,	r15	
    45a2:	5a 49 02 00 	mov.b	2(r9),	r10	;0x0002(r9)
    45a6:	0b 4c       	mov	r12,	r11	
    45a8:	4b ea       	xor.b	r10,	r11	
    45aa:	0b ea       	xor	r10,	r11	
    45ac:	8b 10       	swpb	r11		
    45ae:	7a f3       	and.b	#-1,	r10	;r3 As==11
    45b0:	8a 10       	swpb	r10		
    45b2:	0e da       	bis	r10,	r14	
    45b4:	0f db       	bis	r11,	r15	
    45b6:	39 41       	pop	r9		
    45b8:	3a 41       	pop	r10		
    45ba:	3b 41       	pop	r11		
    45bc:	30 41       	ret			

000045be <CC2420TransmitP__SFD__get>:
    45be:	5e 42 1c 00 	mov.b	&0x001c,r14	
    45c2:	6e f3       	and.b	#2,	r14	;r3 As==10
    45c4:	5f 43       	mov.b	#1,	r15	;r3 As==01
    45c6:	01 20       	jnz	$+4      	;abs 0x45ca
    45c8:	4f 4e       	mov.b	r14,	r15	
    45ca:	30 41       	ret			

000045cc <Msp430AlarmC__1__Msp430TimerControl__disableEvents>:
    45cc:	b2 f0 ef ff 86 01 	and	#-17,	&0x0186	;#0xffef
    45d2:	30 41       	ret			

000045d4 <GpioCaptureC__0__Msp430Capture__clearOverflow>:
    45d4:	b2 f0 fd ff 84 01 	and	#-3,	&0x0184	;#0xfffd
    45da:	30 41       	ret			

000045dc <GpioCaptureC__0__Msp430TimerControl__clearPendingInterrupt>:
    45dc:	b2 f0 fe ff 84 01 	and	#-2,	&0x0184	;#0xfffe
    45e2:	30 41       	ret			

000045e4 <HplMsp430Usart0P__Usart__resetUsart>:
    45e4:	4f 93       	tst.b	r15		
    45e6:	03 24       	jz	$+8      	;abs 0x45ee
    45e8:	d2 43 70 00 	mov.b	#1,	&0x0070	;r3 As==01
    45ec:	30 41       	ret			
    45ee:	f2 f0 fe ff 70 00 	and.b	#-2,	&0x0070	;#0xfffe
    45f4:	30 41       	ret			

000045f6 <HplMsp430Usart0P__URXD__selectIOFunc>:
    45f6:	f2 f0 df ff 1b 00 	and.b	#-33,	&0x001b	;#0xffdf
    45fc:	30 41       	ret			

000045fe <HplMsp430Usart0P__UTXD__selectIOFunc>:
    45fe:	f2 f0 ef ff 1b 00 	and.b	#-17,	&0x001b	;#0xffef
    4604:	30 41       	ret			

00004606 <HplMsp430Usart0P__Usart__disableUart>:
    4606:	f2 f0 3f 00 04 00 	and.b	#63,	&0x0004	;#0x003f
    460c:	b0 12 fe 45 	call	#0x45fe	
    4610:	b0 12 f6 45 	call	#0x45f6	
    4614:	30 41       	ret			

00004616 <ArbiterP__0__Queue__dequeue>:
    4616:	5f 42 06 11 	mov.b	&0x1106,r15	
    461a:	7f 93       	cmp.b	#-1,	r15	;r3 As==11
    461c:	0d 24       	jz	$+28     	;abs 0x4638
    461e:	4d 4f       	mov.b	r15,	r13	
    4620:	0e 4d       	mov	r13,	r14	
    4622:	3e 50 10 12 	add	#4624,	r14	;#0x1210
    4626:	6c 4e       	mov.b	@r14,	r12	
    4628:	c2 4c 06 11 	mov.b	r12,	&0x1106	
    462c:	7c 93       	cmp.b	#-1,	r12	;r3 As==11
    462e:	02 20       	jnz	$+6      	;abs 0x4634
    4630:	c2 4c 07 11 	mov.b	r12,	&0x1107	
    4634:	fd 43 10 12 	mov.b	#-1,	4624(r13);r3 As==11, 0x1210(r13)
    4638:	30 41       	ret			

0000463a <RandomMlcgC__Random__rand16>:
    463a:	0b 12       	push	r11		
    463c:	0a 12       	push	r10		
    463e:	09 12       	push	r9		
    4640:	08 12       	push	r8		
    4642:	07 12       	push	r7		
    4644:	06 12       	push	r6		
    4646:	05 12       	push	r5		
    4648:	04 12       	push	r4		
    464a:	18 42 dc 11 	mov	&0x11dc,r8	
    464e:	19 42 de 11 	mov	&0x11de,r9	
    4652:	34 40 4e 83 	mov	#-31922,r4	;#0x834e
    4656:	05 43       	clr	r5		
    4658:	b0 12 c6 7e 	call	#0x7ec6	
    465c:	0a 4c       	mov	r12,	r10	
    465e:	0b 4d       	mov	r13,	r11	
    4660:	0c 4e       	mov	r14,	r12	
    4662:	0d 4f       	mov	r15,	r13	
    4664:	0e 4a       	mov	r10,	r14	
    4666:	0f 4b       	mov	r11,	r15	
    4668:	12 c3       	clrc			
    466a:	0f 10       	rrc	r15		
    466c:	0e 10       	rrc	r14		
    466e:	0e 5c       	add	r12,	r14	
    4670:	0f 6d       	addc	r13,	r15	
    4672:	0f 93       	tst	r15		
    4674:	05 34       	jge	$+12     	;abs 0x4680
    4676:	3e f3       	and	#-1,	r14	;r3 As==11
    4678:	3f f0 ff 7f 	and	#32767,	r15	;#0x7fff
    467c:	1e 53       	inc	r14		
    467e:	0f 63       	adc	r15		
    4680:	82 4e dc 11 	mov	r14,	&0x11dc	
    4684:	82 4f de 11 	mov	r15,	&0x11de	
    4688:	0f 4e       	mov	r14,	r15	
    468a:	34 41       	pop	r4		
    468c:	35 41       	pop	r5		
    468e:	36 41       	pop	r6		
    4690:	37 41       	pop	r7		
    4692:	38 41       	pop	r8		
    4694:	39 41       	pop	r9		
    4696:	3a 41       	pop	r10		
    4698:	3b 41       	pop	r11		
    469a:	30 41       	ret			

0000469c <HplMsp430Usart0P__Usart__disableIntr>:
    469c:	f2 f0 3f 00 00 00 	and.b	#63,	&0x0000	;#0x003f
    46a2:	30 41       	ret			

000046a4 <HplMsp430Usart0P__Usart__clrIntr>:
    46a4:	f2 f0 3f 00 02 00 	and.b	#63,	&0x0002	;#0x003f
    46aa:	30 41       	ret			

000046ac <HplMsp430Usart0P__UTXD__selectModuleFunc>:
    46ac:	f2 d0 10 00 1b 00 	bis.b	#16,	&0x001b	;#0x0010
    46b2:	30 41       	ret			

000046b4 <HplMsp430Usart0P__URXD__selectModuleFunc>:
    46b4:	f2 d0 20 00 1b 00 	bis.b	#32,	&0x001b	;#0x0020
    46ba:	30 41       	ret			

000046bc <HplMsp430Usart0P__HplI2C__clearModeI2C>:
    46bc:	f2 f0 da ff 70 00 	and.b	#-38,	&0x0070	;#0xffda
    46c2:	5f 43       	mov.b	#1,	r15	;r3 As==01
    46c4:	b0 12 e4 45 	call	#0x45e4	
    46c8:	30 41       	ret			

000046ca <Msp430UartP__0__Usart__clrTxIntr>:
    46ca:	f2 f0 7f 00 02 00 	and.b	#127,	&0x0002	;#0x007f
    46d0:	30 41       	ret			

000046d2 <CC2420SpiP__SpiByte__write>:
    46d2:	c2 4f 77 00 	mov.b	r15,	&0x0077	
    46d6:	5f 42 02 00 	mov.b	&0x0002,r15	
    46da:	3f f0 40 00 	and	#64,	r15	;#0x0040
    46de:	fb 27       	jz	$-8      	;abs 0x46d6
    46e0:	f2 f0 bf ff 02 00 	and.b	#-65,	&0x0002	;#0xffbf
    46e6:	5f 42 76 00 	mov.b	&0x0076,r15	
    46ea:	30 41       	ret			

000046ec <Msp430InterruptC__0__HplInterrupt__clear>:
    46ec:	f2 f0 ef ff 23 00 	and.b	#-17,	&0x0023	;#0xffef
    46f2:	30 41       	ret			

000046f4 <Msp430InterruptC__1__HplInterrupt__clear>:
    46f4:	f2 f0 fe ff 23 00 	and.b	#-2,	&0x0023	;#0xfffe
    46fa:	30 41       	ret			

000046fc <GpioCaptureC__0__Msp430TimerControl__disableEvents>:
    46fc:	b2 f0 ef ff 84 01 	and	#-17,	&0x0184	;#0xffef
    4702:	30 41       	ret			

00004704 <Msp430GpioC__1__GeneralIO__makeOutput>:
    4704:	e2 d2 1e 00 	bis.b	#4,	&0x001e	;r2 As==10
    4708:	30 41       	ret			

0000470a <OneWireMasterC__BusyWait__wait>:
    470a:	1e 42 70 01 	mov	&0x0170,r14	
    470e:	3f 90 01 80 	cmp	#-32767,r15	;#0x8001
    4712:	0a 28       	jnc	$+22     	;abs 0x4728
    4714:	3f 50 00 80 	add	#-32768,r15	;#0x8000
    4718:	1d 42 70 01 	mov	&0x0170,r13	
    471c:	0d 8e       	sub	r14,	r13	
    471e:	0f 9d       	cmp	r13,	r15	
    4720:	fb 2f       	jc	$-8      	;abs 0x4718
    4722:	0e 5f       	add	r15,	r14	
    4724:	3f 40 00 80 	mov	#-32768,r15	;#0x8000
    4728:	1d 42 70 01 	mov	&0x0170,r13	
    472c:	0d 8e       	sub	r14,	r13	
    472e:	0f 9d       	cmp	r13,	r15	
    4730:	fb 2f       	jc	$-8      	;abs 0x4728
    4732:	30 41       	ret			

00004734 <OneWireMasterC__Pin__makeInput>:
    4734:	f2 f0 ef ff 2a 00 	and.b	#-17,	&0x002a	;#0xffef
    473a:	30 41       	ret			

0000473c <OneWireMasterC__Pin__makeOutput>:
    473c:	f2 d0 10 00 2a 00 	bis.b	#16,	&0x002a	;#0x0010
    4742:	30 41       	ret			

00004744 <SchedulerBasicP__popTask>:
    4744:	5f 42 33 13 	mov.b	&0x1333,r15	
    4748:	7f 93       	cmp.b	#-1,	r15	;r3 As==11
    474a:	0d 24       	jz	$+28     	;abs 0x4766
    474c:	4d 4f       	mov.b	r15,	r13	
    474e:	0e 4d       	mov	r13,	r14	
    4750:	3e 50 5a 11 	add	#4442,	r14	;#0x115a
    4754:	6c 4e       	mov.b	@r14,	r12	
    4756:	c2 4c 33 13 	mov.b	r12,	&0x1333	
    475a:	7c 93       	cmp.b	#-1,	r12	;r3 As==11
    475c:	02 20       	jnz	$+6      	;abs 0x4762
    475e:	c2 4c 6f 13 	mov.b	r12,	&0x136f	
    4762:	fd 43 5a 11 	mov.b	#-1,	4442(r13);r3 As==11, 0x115a(r13)
    4766:	30 41       	ret			

00004768 <Msp430InterruptC__2__HplInterrupt__clear>:
    4768:	f2 f0 7f 00 2b 00 	and.b	#127,	&0x002b	;#0x007f
    476e:	30 41       	ret			

00004770 <Msp430TimerP__1__Timer__get>:
    4770:	1f 42 90 01 	mov	&0x0190,r15	
    4774:	01 3c       	jmp	$+4      	;abs 0x4778
    4776:	0f 4e       	mov	r14,	r15	
    4778:	1e 42 90 01 	mov	&0x0190,r14	
    477c:	0f 9e       	cmp	r14,	r15	
    477e:	fb 23       	jnz	$-8      	;abs 0x4776
    4780:	30 41       	ret			

00004782 <GpioCaptureC__0__enableCapture>:
    4782:	0b 12       	push	r11		
    4784:	4b 4f       	mov.b	r15,	r11	
    4786:	b0 12 fc 46 	call	#0x46fc	
    478a:	e2 d3 1f 00 	bis.b	#2,	&0x001f	;r3 As==10
    478e:	b0 12 dc 45 	call	#0x45dc	
    4792:	b0 12 d4 45 	call	#0x45d4	
    4796:	4f 4b       	mov.b	r11,	r15	
    4798:	4f 5f       	rla.b	r15		
    479a:	4f 5f       	rla.b	r15		
    479c:	4f 5f       	rla.b	r15		
    479e:	4f 5f       	rla.b	r15		
    47a0:	4f 5f       	rla.b	r15		
    47a2:	4f 5f       	rla.b	r15		
    47a4:	4f 11       	rra.b	r15		
    47a6:	4f 11       	rra.b	r15		
    47a8:	4f 11       	rra.b	r15		
    47aa:	4f 11       	rra.b	r15		
    47ac:	4f 11       	rra.b	r15		
    47ae:	4f 11       	rra.b	r15		
    47b0:	4f 4f       	mov.b	r15,	r15	
    47b2:	8f 10       	swpb	r15		
    47b4:	0f 5f       	rla	r15		
    47b6:	0f 5f       	rla	r15		
    47b8:	0f 5f       	rla	r15		
    47ba:	0f 5f       	rla	r15		
    47bc:	0f 5f       	rla	r15		
    47be:	0f 5f       	rla	r15		
    47c0:	3e 40 84 01 	mov	#388,	r14	;#0x0184
    47c4:	3f d0 00 01 	bis	#256,	r15	;#0x0100
    47c8:	8e 4f 00 00 	mov	r15,	0(r14)	;0x0000(r14)
    47cc:	be d0 10 00 00 00 	bis	#16,	0(r14)	;#0x0010, 0x0000(r14)
    47d2:	0f 43       	clr	r15		
    47d4:	3b 41       	pop	r11		
    47d6:	30 41       	ret			

000047d8 <CC2420TransmitP__CaptureSFD__captureRisingEdge>:
    47d8:	5f 43       	mov.b	#1,	r15	;r3 As==01
    47da:	b0 12 82 47 	call	#0x4782	
    47de:	30 41       	ret			

000047e0 <HplMsp430Usart0P__Usart__disableSpi>:
    47e0:	f2 f0 bf ff 04 00 	and.b	#-65,	&0x0004	;#0xffbf
    47e6:	3f 40 1b 00 	mov	#27,	r15	;#0x001b
    47ea:	ff f0 fd ff 00 00 	and.b	#-3,	0(r15)	;#0xfffd, 0x0000(r15)
    47f0:	ff f0 fb ff 00 00 	and.b	#-5,	0(r15)	;#0xfffb, 0x0000(r15)
    47f6:	ff f0 f7 ff 00 00 	and.b	#-9,	0(r15)	;#0xfff7, 0x0000(r15)
    47fc:	30 41       	ret			

000047fe <CC2420PacketP__PacketTimeStamp32khz__clear>:
    47fe:	cf 43 29 00 	mov.b	#0,	41(r15)	;r3 As==00, 0x0029(r15)
    4802:	0d 43       	clr	r13		
    4804:	3e 40 00 80 	mov	#-32768,r14	;#0x8000
    4808:	3f 50 2a 00 	add	#42,	r15	;#0x002a
    480c:	b0 12 4a 45 	call	#0x454a	
    4810:	30 41       	ret			

00004812 <Msp430ClockP__set_dco_calib>:
    4812:	0d 4f       	mov	r15,	r13	
    4814:	8d 10       	swpb	r13		
    4816:	7d f0 07 00 	and.b	#7,	r13	;#0x0007
    481a:	5e 42 57 00 	mov.b	&0x0057,r14	
    481e:	7e f0 f8 ff 	and.b	#-8,	r14	;#0xfff8
    4822:	4d de       	bis.b	r14,	r13	
    4824:	c2 4d 57 00 	mov.b	r13,	&0x0057	
    4828:	c2 4f 56 00 	mov.b	r15,	&0x0056	
    482c:	30 41       	ret			

0000482e <CC2420PacketP__getNetwork>:
    482e:	0b 12       	push	r11		
    4830:	0b 4f       	mov	r15,	r11	
    4832:	2b 82       	sub	#4,	r11	;r2 As==10
    4834:	3f 50 fd ff 	add	#-3,	r15	;#0xfffd
    4838:	b0 12 3e 45 	call	#0x453e	
    483c:	0e 4f       	mov	r15,	r14	
    483e:	8e 10       	swpb	r14		
    4840:	3e f0 ff 00 	and	#255,	r14	;#0x00ff
    4844:	12 c3       	clrc			
    4846:	0e 10       	rrc	r14		
    4848:	0e 11       	rra	r14		
    484a:	0d 4e       	mov	r14,	r13	
    484c:	3d f0 03 00 	and	#3,	r13	;#0x0003
    4850:	0d 5d       	rla	r13		
    4852:	1d 4d 6a 6f 	mov	28522(r13),r13	;0x6f6a(r13)
    4856:	0e 11       	rra	r14		
    4858:	0e 11       	rra	r14		
    485a:	0e 11       	rra	r14		
    485c:	0e 11       	rra	r14		
    485e:	0e 5e       	rla	r14		
    4860:	1f 4e 6a 6f 	mov	28522(r14),r15	;0x6f6a(r14)
    4864:	0f 5d       	add	r13,	r15	
    4866:	3f 50 06 00 	add	#6,	r15	;#0x0006
    486a:	0f 5b       	add	r11,	r15	
    486c:	3b 41       	pop	r11		
    486e:	30 41       	ret			

00004870 <CC2420ReceiveP__reset_state>:
    4870:	f2 40 80 ff 4e 11 	mov.b	#-128,	&0x114e	;#0xff80
    4876:	c2 43 d0 11 	mov.b	#0,	&0x11d0	;r3 As==00
    487a:	c2 43 36 13 	mov.b	#0,	&0x1336	;r3 As==00
    487e:	c2 43 32 13 	mov.b	#0,	&0x1332	;r3 As==00
    4882:	c2 43 9b 11 	mov.b	#0,	&0x119b	;r3 As==00
    4886:	30 41       	ret			

00004888 <CC2420ControlP__LocalIeeeEui64__getId>:
    4888:	0b 12       	push	r11		
    488a:	0a 12       	push	r10		
    488c:	09 12       	push	r9		
    488e:	08 12       	push	r8		
    4890:	07 12       	push	r7		
    4892:	31 50 f2 ff 	add	#-14,	r1	;#0xfff2
    4896:	c2 93 1e 11 	tst.b	&0x111e	
    489a:	82 20       	jnz	$+262    	;abs 0x49a0
    489c:	b0 12 34 47 	call	#0x4734	
    48a0:	f2 f0 ef ff 29 00 	and.b	#-17,	&0x0029	;#0xffef
    48a6:	b0 12 3c 47 	call	#0x473c	
    48aa:	3f 40 30 02 	mov	#560,	r15	;#0x0230
    48ae:	b0 12 0a 47 	call	#0x470a	
    48b2:	b0 12 34 47 	call	#0x4734	
    48b6:	3f 40 3c 00 	mov	#60,	r15	;#0x003c
    48ba:	b0 12 0a 47 	call	#0x470a	
    48be:	0b 43       	clr	r11		
    48c0:	f2 b0 10 00 28 00 	bit.b	#16,	&0x0028	;#0x0010
    48c6:	09 24       	jz	$+20     	;abs 0x48da
    48c8:	3b 50 05 00 	add	#5,	r11	;#0x0005
    48cc:	3f 40 05 00 	mov	#5,	r15	;#0x0005
    48d0:	b0 12 0a 47 	call	#0x470a	
    48d4:	3b 90 f0 00 	cmp	#240,	r11	;#0x00f0
    48d8:	f3 23       	jnz	$-24     	;abs 0x48c0
    48da:	3f 40 a4 01 	mov	#420,	r15	;#0x01a4
    48de:	b0 12 0a 47 	call	#0x470a	
    48e2:	3b 90 f0 00 	cmp	#240,	r11	;#0x00f0
    48e6:	5e 2c       	jc	$+190    	;abs 0x49a4
    48e8:	7a 42       	mov.b	#8,	r10	;r2 As==11
    48ea:	7b 40 33 00 	mov.b	#51,	r11	;#0x0033
    48ee:	1b b3       	bit	#1,	r11	;r3 As==01
    48f0:	0b 24       	jz	$+24     	;abs 0x4908
    48f2:	b0 12 3c 47 	call	#0x473c	
    48f6:	3f 40 05 00 	mov	#5,	r15	;#0x0005
    48fa:	b0 12 0a 47 	call	#0x470a	
    48fe:	b0 12 34 47 	call	#0x4734	
    4902:	3f 40 41 00 	mov	#65,	r15	;#0x0041
    4906:	0a 3c       	jmp	$+22     	;abs 0x491c
    4908:	b0 12 3c 47 	call	#0x473c	
    490c:	3f 40 3c 00 	mov	#60,	r15	;#0x003c
    4910:	b0 12 0a 47 	call	#0x470a	
    4914:	b0 12 34 47 	call	#0x4734	
    4918:	3f 40 05 00 	mov	#5,	r15	;#0x0005
    491c:	b0 12 0a 47 	call	#0x470a	
    4920:	7a 53       	add.b	#-1,	r10	;r3 As==11
    4922:	03 24       	jz	$+8      	;abs 0x492a
    4924:	12 c3       	clrc			
    4926:	4b 10       	rrc.b	r11		
    4928:	e2 3f       	jmp	$-58     	;abs 0x48ee
    492a:	3b 40 cc 12 	mov	#4812,	r11	;#0x12cc
    492e:	0a 4b       	mov	r11,	r10	
    4930:	78 42       	mov.b	#8,	r8	;r2 As==11
    4932:	49 43       	clr.b	r9		
    4934:	12 c3       	clrc			
    4936:	49 10       	rrc.b	r9		
    4938:	b0 12 3c 47 	call	#0x473c	
    493c:	3f 40 05 00 	mov	#5,	r15	;#0x0005
    4940:	b0 12 0a 47 	call	#0x470a	
    4944:	b0 12 34 47 	call	#0x4734	
    4948:	3f 40 05 00 	mov	#5,	r15	;#0x0005
    494c:	b0 12 0a 47 	call	#0x470a	
    4950:	57 42 28 00 	mov.b	&0x0028,r7	
    4954:	3f 40 41 00 	mov	#65,	r15	;#0x0041
    4958:	b0 12 0a 47 	call	#0x470a	
    495c:	77 b0 10 00 	bit.b	#16,	r7	;#0x0010
    4960:	02 24       	jz	$+6      	;abs 0x4966
    4962:	79 d0 80 ff 	bis.b	#-128,	r9	;#0xff80
    4966:	78 53       	add.b	#-1,	r8	;r3 As==11
    4968:	e5 23       	jnz	$-52     	;abs 0x4934
    496a:	ca 49 00 00 	mov.b	r9,	0(r10)	;0x0000(r10)
    496e:	1a 53       	inc	r10		
    4970:	3a 90 d4 12 	cmp	#4820,	r10	;#0x12d4
    4974:	dd 23       	jnz	$-68     	;abs 0x4930
    4976:	4f 48       	mov.b	r8,	r15	
    4978:	6f eb       	xor.b	@r11,	r15	
    497a:	7e 42       	mov.b	#8,	r14	;r2 As==11
    497c:	0d 4f       	mov	r15,	r13	
    497e:	1d f3       	and	#1,	r13	;r3 As==01
    4980:	12 c3       	clrc			
    4982:	4f 10       	rrc.b	r15		
    4984:	0d 93       	tst	r13		
    4986:	02 24       	jz	$+6      	;abs 0x498c
    4988:	7f e0 8c ff 	xor.b	#-116,	r15	;#0xff8c
    498c:	7e 53       	add.b	#-1,	r14	;r3 As==11
    498e:	f6 23       	jnz	$-18     	;abs 0x497c
    4990:	1b 53       	inc	r11		
    4992:	3b 90 d4 12 	cmp	#4820,	r11	;#0x12d4
    4996:	f0 23       	jnz	$-30     	;abs 0x4978
    4998:	4f 93       	tst.b	r15		
    499a:	06 20       	jnz	$+14     	;abs 0x49a8
    499c:	d2 43 1e 11 	mov.b	#1,	&0x111e	;r3 As==01
    49a0:	0f 43       	clr	r15		
    49a2:	04 3c       	jmp	$+10     	;abs 0x49ac
    49a4:	2f 42       	mov	#4,	r15	;r2 As==10
    49a6:	02 3c       	jmp	$+6      	;abs 0x49ac
    49a8:	3f 40 06 00 	mov	#6,	r15	;#0x0006
    49ac:	c2 93 1e 11 	tst.b	&0x111e	
    49b0:	0a 24       	jz	$+22     	;abs 0x49c6
    49b2:	0e 43       	clr	r14		
    49b4:	0d 41       	mov	r1,	r13	
    49b6:	0d 5e       	add	r14,	r13	
    49b8:	dd 4e cd 12 00 00 	mov.b	4813(r14),0(r13)	;0x12cd(r14), 0x0000(r13)
    49be:	1e 53       	inc	r14		
    49c0:	3e 90 06 00 	cmp	#6,	r14	;#0x0006
    49c4:	f7 23       	jnz	$-16     	;abs 0x49b4
    49c6:	0f 93       	tst	r15		
    49c8:	08 24       	jz	$+18     	;abs 0x49da
    49ca:	3d 42       	mov	#8,	r13	;r2 As==11
    49cc:	0e 43       	clr	r14		
    49ce:	0f 41       	mov	r1,	r15	
    49d0:	3f 50 06 00 	add	#6,	r15	;#0x0006
    49d4:	b0 12 60 7e 	call	#0x7e60	
    49d8:	16 3c       	jmp	$+46     	;abs 0x4a06
    49da:	c1 4f 06 00 	mov.b	r15,	6(r1)	;0x0006(r1)
    49de:	f1 40 12 00 07 00 	mov.b	#18,	7(r1)	;#0x0012, 0x0007(r1)
    49e4:	f1 40 6d 00 08 00 	mov.b	#109,	8(r1)	;#0x006d, 0x0008(r1)
    49ea:	f1 40 45 00 09 00 	mov.b	#69,	9(r1)	;#0x0045, 0x0009(r1)
    49f0:	f1 40 50 00 0a 00 	mov.b	#80,	10(r1)	;#0x0050, 0x000a(r1)
    49f6:	d1 41 02 00 0b 00 	mov.b	2(r1),	11(r1)	;0x0002(r1), 0x000b(r1)
    49fc:	d1 41 01 00 0c 00 	mov.b	1(r1),	12(r1)	;0x0001(r1), 0x000c(r1)
    4a02:	e1 41 0d 00 	mov.b	@r1,	13(r1)	;0x000d(r1)
    4a06:	1c 41 06 00 	mov	6(r1),	r12	;0x0006(r1)
    4a0a:	1d 41 08 00 	mov	8(r1),	r13	;0x0008(r1)
    4a0e:	1e 41 0a 00 	mov	10(r1),	r14	;0x000a(r1)
    4a12:	1f 41 0c 00 	mov	12(r1),	r15	;0x000c(r1)
    4a16:	31 50 0e 00 	add	#14,	r1	;#0x000e
    4a1a:	37 41       	pop	r7		
    4a1c:	38 41       	pop	r8		
    4a1e:	39 41       	pop	r9		
    4a20:	3a 41       	pop	r10		
    4a22:	3b 41       	pop	r11		
    4a24:	30 41       	ret			

00004a26 <Msp430SpiNoDmaP__0__continueOp>:
    4a26:	0b 12       	push	r11		
    4a28:	0e 42       	mov	r2,	r14	
    4a2a:	3e f2       	and	#8,	r14	;r2 As==11
    4a2c:	32 c2       	dint			
    4a2e:	03 43       	nop			
    4a30:	1f 42 0a 12 	mov	&0x120a,r15	
    4a34:	0f 93       	tst	r15		
    4a36:	03 24       	jz	$+8      	;abs 0x4a3e
    4a38:	1f 52 34 13 	add	&0x1334,r15	
    4a3c:	6f 4f       	mov.b	@r15,	r15	
    4a3e:	c2 4f 77 00 	mov.b	r15,	&0x0077	
    4a42:	5f 42 34 13 	mov.b	&0x1334,r15	
    4a46:	6f 53       	incd.b	r15		
    4a48:	1d 42 38 13 	mov	&0x1338,r13	
    4a4c:	4c 4f       	mov.b	r15,	r12	
    4a4e:	0d 9c       	cmp	r12,	r13	
    4a50:	1a 2c       	jc	$+54     	;abs 0x4a86
    4a52:	4f 4d       	mov.b	r13,	r15	
    4a54:	18 3c       	jmp	$+50     	;abs 0x4a86
    4a56:	5f 42 02 00 	mov.b	&0x0002,r15	
    4a5a:	3f f0 40 00 	and	#64,	r15	;#0x0040
    4a5e:	fb 27       	jz	$-8      	;abs 0x4a56
    4a60:	5b 42 76 00 	mov.b	&0x0076,r11	
    4a64:	1f 42 6e 12 	mov	&0x126e,r15	
    4a68:	0f 93       	tst	r15		
    4a6a:	03 24       	jz	$+8      	;abs 0x4a72
    4a6c:	0d 5f       	add	r15,	r13	
    4a6e:	cd 4b 00 00 	mov.b	r11,	0(r13)	;0x0000(r13)
    4a72:	1d 42 0a 12 	mov	&0x120a,r13	
    4a76:	0d 93       	tst	r13		
    4a78:	03 24       	jz	$+8      	;abs 0x4a80
    4a7a:	1d 52 34 13 	add	&0x1334,r13	
    4a7e:	6d 4d       	mov.b	@r13,	r13	
    4a80:	c2 4d 77 00 	mov.b	r13,	&0x0077	
    4a84:	01 3c       	jmp	$+4      	;abs 0x4a88
    4a86:	4c 4f       	mov.b	r15,	r12	
    4a88:	1d 42 34 13 	mov	&0x1334,r13	
    4a8c:	0f 4d       	mov	r13,	r15	
    4a8e:	1f 53       	inc	r15		
    4a90:	82 4f 34 13 	mov	r15,	&0x1334	
    4a94:	0f 9c       	cmp	r12,	r15	
    4a96:	df 2b       	jnc	$-64     	;abs 0x4a56
    4a98:	0e 93       	tst	r14		
    4a9a:	01 24       	jz	$+4      	;abs 0x4a9e
    4a9c:	32 d2       	eint			
    4a9e:	3b 41       	pop	r11		
    4aa0:	30 41       	ret			

00004aa2 <StateImplP__State__isState>:
    4aa2:	0c 42       	mov	r2,	r12	
    4aa4:	32 c2       	dint			
    4aa6:	03 43       	nop			
    4aa8:	4d 4f       	mov.b	r15,	r13	
    4aaa:	5f 43       	mov.b	#1,	r15	;r3 As==01
    4aac:	cd 9e a0 12 	cmp.b	r14,	4768(r13);0x12a0(r13)
    4ab0:	01 24       	jz	$+4      	;abs 0x4ab4
    4ab2:	4f 43       	clr.b	r15		
    4ab4:	3c b2       	bit	#8,	r12	;r2 As==11
    4ab6:	01 24       	jz	$+4      	;abs 0x4aba
    4ab8:	32 d2       	eint			
    4aba:	30 41       	ret			

00004abc <CC2420SpiP__WorkingState__isIdle>:
    4abc:	4e 43       	clr.b	r14		
    4abe:	4f 4e       	mov.b	r14,	r15	
    4ac0:	b0 12 a2 4a 	call	#0x4aa2	
    4ac4:	30 41       	ret			

00004ac6 <CC2420SpiP__Strobe__strobe>:
    4ac6:	0b 12       	push	r11		
    4ac8:	0a 12       	push	r10		
    4aca:	4a 4f       	mov.b	r15,	r10	
    4acc:	0b 42       	mov	r2,	r11	
    4ace:	3b f2       	and	#8,	r11	;r2 As==11
    4ad0:	32 c2       	dint			
    4ad2:	03 43       	nop			
    4ad4:	b0 12 bc 4a 	call	#0x4abc	
    4ad8:	4f 93       	tst.b	r15		
    4ada:	05 24       	jz	$+12     	;abs 0x4ae6
    4adc:	0b 93       	tst	r11		
    4ade:	0a 24       	jz	$+22     	;abs 0x4af4
    4ae0:	32 d2       	eint			
    4ae2:	4f 43       	clr.b	r15		
    4ae4:	08 3c       	jmp	$+18     	;abs 0x4af6
    4ae6:	0b 93       	tst	r11		
    4ae8:	01 24       	jz	$+4      	;abs 0x4aec
    4aea:	32 d2       	eint			
    4aec:	4f 4a       	mov.b	r10,	r15	
    4aee:	b0 12 d2 46 	call	#0x46d2	
    4af2:	01 3c       	jmp	$+4      	;abs 0x4af6
    4af4:	4f 4b       	mov.b	r11,	r15	
    4af6:	3a 41       	pop	r10		
    4af8:	3b 41       	pop	r11		
    4afa:	30 41       	ret			

00004afc <CC2420TransmitP__SFLUSHTX__strobe>:
    4afc:	7f 40 09 00 	mov.b	#9,	r15	;#0x0009
    4b00:	b0 12 c6 4a 	call	#0x4ac6	
    4b04:	30 41       	ret			

00004b06 <CC2420ReceiveP__CC2420Config__getShortAddr>:
    4b06:	0e 42       	mov	r2,	r14	
    4b08:	32 c2       	dint			
    4b0a:	03 43       	nop			
    4b0c:	1f 42 1a 12 	mov	&0x121a,r15	
    4b10:	3e f2       	and	#8,	r14	;r2 As==11
    4b12:	01 24       	jz	$+4      	;abs 0x4b16
    4b14:	32 d2       	eint			
    4b16:	30 41       	ret			

00004b18 <Msp430GpioC__1__GeneralIO__clr>:
    4b18:	0f 42       	mov	r2,	r15	
    4b1a:	32 c2       	dint			
    4b1c:	03 43       	nop			
    4b1e:	f2 f0 fb ff 1d 00 	and.b	#-5,	&0x001d	;#0xfffb
    4b24:	3f f2       	and	#8,	r15	;r2 As==11
    4b26:	01 24       	jz	$+4      	;abs 0x4b2a
    4b28:	32 d2       	eint			
    4b2a:	30 41       	ret			

00004b2c <SchedulerBasicP__TaskBasic__postTask>:
    4b2c:	0e 42       	mov	r2,	r14	
    4b2e:	3e f2       	and	#8,	r14	;r2 As==11
    4b30:	32 c2       	dint			
    4b32:	03 43       	nop			
    4b34:	4d 4f       	mov.b	r15,	r13	
    4b36:	fd 93 5a 11 	cmp.b	#-1,	4442(r13);r3 As==11, 0x115a(r13)
    4b3a:	11 20       	jnz	$+36     	;abs 0x4b5e
    4b3c:	c2 9f 6f 13 	cmp.b	r15,	&0x136f	
    4b40:	0e 24       	jz	$+30     	;abs 0x4b5e
    4b42:	f2 93 33 13 	cmp.b	#-1,	&0x1333	;r3 As==11
    4b46:	03 20       	jnz	$+8      	;abs 0x4b4e
    4b48:	c2 4f 33 13 	mov.b	r15,	&0x1333	
    4b4c:	04 3c       	jmp	$+10     	;abs 0x4b56
    4b4e:	5d 42 6f 13 	mov.b	&0x136f,r13	
    4b52:	cd 4f 5a 11 	mov.b	r15,	4442(r13);0x115a(r13)
    4b56:	c2 4f 6f 13 	mov.b	r15,	&0x136f	
    4b5a:	0f 43       	clr	r15		
    4b5c:	02 3c       	jmp	$+6      	;abs 0x4b62
    4b5e:	3f 40 05 00 	mov	#5,	r15	;#0x0005
    4b62:	0e 93       	tst	r14		
    4b64:	01 24       	jz	$+4      	;abs 0x4b68
    4b66:	32 d2       	eint			
    4b68:	30 41       	ret			

00004b6a <ArbiterP__0__ResourceDefaultOwner__release>:
    4b6a:	e2 93 08 11 	cmp.b	#2,	&0x1108	;r3 As==10
    4b6e:	1a 20       	jnz	$+54     	;abs 0x4ba4
    4b70:	5f 42 d1 11 	mov.b	&0x11d1,r15	
    4b74:	4e 4f       	mov.b	r15,	r14	
    4b76:	7e 53       	add.b	#-1,	r14	;r3 As==11
    4b78:	6e 93       	cmp.b	#2,	r14	;r3 As==10
    4b7a:	08 2c       	jc	$+18     	;abs 0x4b8c
    4b7c:	d2 42 08 11 d1 11 	mov.b	&0x1108,&0x11d1	
    4b82:	7f 40 09 00 	mov.b	#9,	r15	;#0x0009
    4b86:	b0 12 2c 4b 	call	#0x4b2c	
    4b8a:	0a 3c       	jmp	$+22     	;abs 0x4ba0
    4b8c:	7f 90 03 00 	cmp.b	#3,	r15	;#0x0003
    4b90:	0b 20       	jnz	$+24     	;abs 0x4ba8
    4b92:	d2 42 09 11 08 11 	mov.b	&0x1109,&0x1108	
    4b98:	f2 43 09 11 	mov.b	#-1,	&0x1109	;r3 As==11
    4b9c:	e2 42 d1 11 	mov.b	#4,	&0x11d1	;r2 As==10
    4ba0:	0f 43       	clr	r15		
    4ba2:	30 41       	ret			
    4ba4:	1f 43       	mov	#1,	r15	;r3 As==01
    4ba6:	30 41       	ret			
    4ba8:	1f 43       	mov	#1,	r15	;r3 As==01
    4baa:	30 41       	ret			

00004bac <CC2420SpiP__SpiPacket__send>:
    4bac:	c2 43 1c 12 	mov.b	#0,	&0x121c	;r3 As==00
    4bb0:	82 4f 0a 12 	mov	r15,	&0x120a	
    4bb4:	82 4e 6e 12 	mov	r14,	&0x126e	
    4bb8:	82 4d 38 13 	mov	r13,	&0x1338	
    4bbc:	82 43 34 13 	mov	#0,	&0x1334	;r3 As==00
    4bc0:	0d 93       	tst	r13		
    4bc2:	0f 24       	jz	$+32     	;abs 0x4be2
    4bc4:	0f 42       	mov	r2,	r15	
    4bc6:	32 c2       	dint			
    4bc8:	03 43       	nop			
    4bca:	f2 f0 bf ff 02 00 	and.b	#-65,	&0x0002	;#0xffbf
    4bd0:	f2 d0 40 00 00 00 	bis.b	#64,	&0x0000	;#0x0040
    4bd6:	3f f2       	and	#8,	r15	;r2 As==11
    4bd8:	01 24       	jz	$+4      	;abs 0x4bdc
    4bda:	32 d2       	eint			
    4bdc:	b0 12 26 4a 	call	#0x4a26	
    4be0:	03 3c       	jmp	$+8      	;abs 0x4be8
    4be2:	7f 42       	mov.b	#8,	r15	;r2 As==11
    4be4:	b0 12 2c 4b 	call	#0x4b2c	
    4be8:	0f 43       	clr	r15		
    4bea:	30 41       	ret			

00004bec <CC2420ReceiveP__RXFIFO__beginRead>:
    4bec:	0b 12       	push	r11		
    4bee:	0a 12       	push	r10		
    4bf0:	09 12       	push	r9		
    4bf2:	0a 4f       	mov	r15,	r10	
    4bf4:	49 4e       	mov.b	r14,	r9	
    4bf6:	0b 42       	mov	r2,	r11	
    4bf8:	3b f2       	and	#8,	r11	;r2 As==11
    4bfa:	32 c2       	dint			
    4bfc:	03 43       	nop			
    4bfe:	b0 12 bc 4a 	call	#0x4abc	
    4c02:	4f 93       	tst.b	r15		
    4c04:	05 24       	jz	$+12     	;abs 0x4c10
    4c06:	0b 93       	tst	r11		
    4c08:	13 24       	jz	$+40     	;abs 0x4c30
    4c0a:	32 d2       	eint			
    4c0c:	4b 43       	clr.b	r11		
    4c0e:	10 3c       	jmp	$+34     	;abs 0x4c30
    4c10:	0b 93       	tst	r11		
    4c12:	01 24       	jz	$+4      	;abs 0x4c16
    4c14:	32 d2       	eint			
    4c16:	b2 40 7f 00 1e 12 	mov	#127,	&0x121e	;#0x007f
    4c1c:	7f 40 7f 00 	mov.b	#127,	r15	;#0x007f
    4c20:	b0 12 d2 46 	call	#0x46d2	
    4c24:	4b 4f       	mov.b	r15,	r11	
    4c26:	4d 49       	mov.b	r9,	r13	
    4c28:	0e 4a       	mov	r10,	r14	
    4c2a:	0f 43       	clr	r15		
    4c2c:	b0 12 ac 4b 	call	#0x4bac	
    4c30:	4f 4b       	mov.b	r11,	r15	
    4c32:	39 41       	pop	r9		
    4c34:	3a 41       	pop	r10		
    4c36:	3b 41       	pop	r11		
    4c38:	30 41       	ret			

00004c3a <CC2420ReceiveP__receive>:
    4c3a:	b0 12 18 4b 	call	#0x4b18	
    4c3e:	5e 43       	mov.b	#1,	r14	;r3 As==01
    4c40:	1f 42 28 11 	mov	&0x1128,r15	
    4c44:	2f 82       	sub	#4,	r15	;r2 As==10
    4c46:	b0 12 ec 4b 	call	#0x4bec	
    4c4a:	30 41       	ret			

00004c4c <ArbiterP__0__Resource__isOwner>:
    4c4c:	0e 42       	mov	r2,	r14	
    4c4e:	3e f2       	and	#8,	r14	;r2 As==11
    4c50:	32 c2       	dint			
    4c52:	03 43       	nop			
    4c54:	c2 9f 08 11 	cmp.b	r15,	&0x1108	
    4c58:	04 20       	jnz	$+10     	;abs 0x4c62
    4c5a:	1f 43       	mov	#1,	r15	;r3 As==01
    4c5c:	e2 92 d1 11 	cmp.b	#4,	&0x11d1	;r2 As==10
    4c60:	01 24       	jz	$+4      	;abs 0x4c64
    4c62:	0f 43       	clr	r15		
    4c64:	0e 93       	tst	r14		
    4c66:	01 24       	jz	$+4      	;abs 0x4c6a
    4c68:	32 d2       	eint			
    4c6a:	30 41       	ret			

00004c6c <StateImplP__State__toIdle>:
    4c6c:	0e 42       	mov	r2,	r14	
    4c6e:	32 c2       	dint			
    4c70:	03 43       	nop			
    4c72:	4f 4f       	mov.b	r15,	r15	
    4c74:	cf 43 a0 12 	mov.b	#0,	4768(r15);r3 As==00, 0x12a0(r15)
    4c78:	3e f2       	and	#8,	r14	;r2 As==11
    4c7a:	01 24       	jz	$+4      	;abs 0x4c7e
    4c7c:	32 d2       	eint			
    4c7e:	30 41       	ret			

00004c80 <Msp430GpioC__1__GeneralIO__set>:
    4c80:	0f 42       	mov	r2,	r15	
    4c82:	32 c2       	dint			
    4c84:	03 43       	nop			
    4c86:	e2 d2 1d 00 	bis.b	#4,	&0x001d	;r2 As==10
    4c8a:	3f f2       	and	#8,	r15	;r2 As==11
    4c8c:	01 24       	jz	$+4      	;abs 0x4c90
    4c8e:	32 d2       	eint			
    4c90:	30 41       	ret			

00004c92 <TransformAlarmC__1__Counter__get>:
    4c92:	0b 12       	push	r11		
    4c94:	0a 12       	push	r10		
    4c96:	09 12       	push	r9		
    4c98:	0a 42       	mov	r2,	r10	
    4c9a:	3a f2       	and	#8,	r10	;r2 As==11
    4c9c:	32 c2       	dint			
    4c9e:	03 43       	nop			
    4ca0:	19 42 08 12 	mov	&0x1208,r9	
    4ca4:	b0 12 70 47 	call	#0x4770	
    4ca8:	0b 4f       	mov	r15,	r11	
    4caa:	1f 42 80 01 	mov	&0x0180,r15	
    4cae:	5f f3       	and.b	#1,	r15	;r3 As==01
    4cb0:	04 24       	jz	$+10     	;abs 0x4cba
    4cb2:	19 53       	inc	r9		
    4cb4:	b0 12 70 47 	call	#0x4770	
    4cb8:	0b 4f       	mov	r15,	r11	
    4cba:	0f 49       	mov	r9,	r15	
    4cbc:	0e 43       	clr	r14		
    4cbe:	0c 4b       	mov	r11,	r12	
    4cc0:	0d 4e       	mov	r14,	r13	
    4cc2:	0e dc       	bis	r12,	r14	
    4cc4:	0f dd       	bis	r13,	r15	
    4cc6:	0a 9d       	cmp	r13,	r10	
    4cc8:	01 24       	jz	$+4      	;abs 0x4ccc
    4cca:	32 d2       	eint			
    4ccc:	39 41       	pop	r9		
    4cce:	3a 41       	pop	r10		
    4cd0:	3b 41       	pop	r11		
    4cd2:	30 41       	ret			

00004cd4 <TransformAlarmC__1__set_alarm>:
    4cd4:	0b 12       	push	r11		
    4cd6:	0a 12       	push	r10		
    4cd8:	09 12       	push	r9		
    4cda:	b0 12 92 4c 	call	#0x4c92	
    4cde:	09 4e       	mov	r14,	r9	
    4ce0:	0a 4f       	mov	r15,	r10	
    4ce2:	1b 42 2c 11 	mov	&0x112c,r11	
    4ce6:	1c 42 2e 11 	mov	&0x112e,r12	
    4cea:	0d 4b       	mov	r11,	r13	
    4cec:	0e 4c       	mov	r12,	r14	
    4cee:	1d 52 9c 11 	add	&0x119c,r13	
    4cf2:	1e 62 9e 11 	addc	&0x119e,r14	
    4cf6:	0a 9c       	cmp	r12,	r10	
    4cf8:	0b 28       	jnc	$+24     	;abs 0x4d10
    4cfa:	0a 9c       	cmp	r12,	r10	
    4cfc:	02 20       	jnz	$+6      	;abs 0x4d02
    4cfe:	09 9b       	cmp	r11,	r9	
    4d00:	07 28       	jnc	$+16     	;abs 0x4d10
    4d02:	0e 9c       	cmp	r12,	r14	
    4d04:	11 28       	jnc	$+36     	;abs 0x4d28
    4d06:	0e 9c       	cmp	r12,	r14	
    4d08:	09 20       	jnz	$+20     	;abs 0x4d1c
    4d0a:	0d 9b       	cmp	r11,	r13	
    4d0c:	0d 28       	jnc	$+28     	;abs 0x4d28
    4d0e:	06 3c       	jmp	$+14     	;abs 0x4d1c
    4d10:	0e 9c       	cmp	r12,	r14	
    4d12:	04 28       	jnc	$+10     	;abs 0x4d1c
    4d14:	0c 9e       	cmp	r14,	r12	
    4d16:	27 28       	jnc	$+80     	;abs 0x4d66
    4d18:	0d 9b       	cmp	r11,	r13	
    4d1a:	25 2c       	jc	$+76     	;abs 0x4d66
    4d1c:	0a 9e       	cmp	r14,	r10	
    4d1e:	04 28       	jnc	$+10     	;abs 0x4d28
    4d20:	0e 9a       	cmp	r10,	r14	
    4d22:	21 28       	jnc	$+68     	;abs 0x4d66
    4d24:	09 9d       	cmp	r13,	r9	
    4d26:	1f 2c       	jc	$+64     	;abs 0x4d66
    4d28:	0b 4d       	mov	r13,	r11	
    4d2a:	0c 4e       	mov	r14,	r12	
    4d2c:	0b 89       	sub	r9,	r11	
    4d2e:	0c 7a       	subc	r10,	r12	
    4d30:	0c 93       	tst	r12		
    4d32:	03 20       	jnz	$+8      	;abs 0x4d3a
    4d34:	3b 90 01 80 	cmp	#-32767,r11	;#0x8001
    4d38:	18 28       	jnc	$+50     	;abs 0x4d6a
    4d3a:	0e 49       	mov	r9,	r14	
    4d3c:	0f 4a       	mov	r10,	r15	
    4d3e:	3e 50 00 80 	add	#-32768,r14	;#0x8000
    4d42:	0f 63       	adc	r15		
    4d44:	82 4e 2c 11 	mov	r14,	&0x112c	
    4d48:	82 4f 2e 11 	mov	r15,	&0x112e	
    4d4c:	0e 4b       	mov	r11,	r14	
    4d4e:	0f 4c       	mov	r12,	r15	
    4d50:	3e 50 00 80 	add	#-32768,r14	;#0x8000
    4d54:	3f 63       	addc	#-1,	r15	;r3 As==11
    4d56:	82 4e 9c 11 	mov	r14,	&0x119c	
    4d5a:	82 4f 9e 11 	mov	r15,	&0x119e	
    4d5e:	3b 40 00 80 	mov	#-32768,r11	;#0x8000
    4d62:	0c 43       	clr	r12		
    4d64:	0a 3c       	jmp	$+22     	;abs 0x4d7a
    4d66:	0b 43       	clr	r11		
    4d68:	0c 43       	clr	r12		
    4d6a:	82 4d 2c 11 	mov	r13,	&0x112c	
    4d6e:	82 4e 2e 11 	mov	r14,	&0x112e	
    4d72:	82 43 9c 11 	mov	#0,	&0x119c	;r3 As==00
    4d76:	82 43 9e 11 	mov	#0,	&0x119e	;r3 As==00
    4d7a:	b0 12 70 47 	call	#0x4770	
    4d7e:	0e 4f       	mov	r15,	r14	
    4d80:	0e 89       	sub	r9,	r14	
    4d82:	0e 9b       	cmp	r11,	r14	
    4d84:	04 2c       	jc	$+10     	;abs 0x4d8e
    4d86:	0b 8e       	sub	r14,	r11	
    4d88:	3b 90 03 00 	cmp	#3,	r11	;#0x0003
    4d8c:	06 2c       	jc	$+14     	;abs 0x4d9a
    4d8e:	b0 12 70 47 	call	#0x4770	
    4d92:	2f 53       	incd	r15		
    4d94:	82 4f 96 01 	mov	r15,	&0x0196	
    4d98:	03 3c       	jmp	$+8      	;abs 0x4da0
    4d9a:	0b 5f       	add	r15,	r11	
    4d9c:	82 4b 96 01 	mov	r11,	&0x0196	
    4da0:	b2 f0 fe ff 86 01 	and	#-2,	&0x0186	;#0xfffe
    4da6:	b2 d0 10 00 86 01 	bis	#16,	&0x0186	;#0x0010
    4dac:	39 41       	pop	r9		
    4dae:	3a 41       	pop	r10		
    4db0:	3b 41       	pop	r11		
    4db2:	30 41       	ret			

00004db4 <TransformAlarmC__1__Alarm__start>:
    4db4:	0b 12       	push	r11		
    4db6:	0a 12       	push	r10		
    4db8:	09 12       	push	r9		
    4dba:	0a 4e       	mov	r14,	r10	
    4dbc:	0b 4f       	mov	r15,	r11	
    4dbe:	b0 12 92 4c 	call	#0x4c92	
    4dc2:	09 42       	mov	r2,	r9	
    4dc4:	32 c2       	dint			
    4dc6:	03 43       	nop			
    4dc8:	82 4e 2c 11 	mov	r14,	&0x112c	
    4dcc:	82 4f 2e 11 	mov	r15,	&0x112e	
    4dd0:	82 4a 9c 11 	mov	r10,	&0x119c	
    4dd4:	82 4b 9e 11 	mov	r11,	&0x119e	
    4dd8:	b0 12 d4 4c 	call	#0x4cd4	
    4ddc:	39 b2       	bit	#8,	r9	;r2 As==11
    4dde:	01 24       	jz	$+4      	;abs 0x4de2
    4de0:	32 d2       	eint			
    4de2:	39 41       	pop	r9		
    4de4:	3a 41       	pop	r10		
    4de6:	3b 41       	pop	r11		
    4de8:	30 41       	ret			

00004dea <CC2420TransmitP__congestionBackoff>:
    4dea:	0b 12       	push	r11		
    4dec:	0a 12       	push	r10		
    4dee:	09 12       	push	r9		
    4df0:	09 42       	mov	r2,	r9	
    4df2:	32 c2       	dint			
    4df4:	03 43       	nop			
    4df6:	b0 12 3a 46 	call	#0x463a	
    4dfa:	0c 4f       	mov	r15,	r12	
    4dfc:	3a 40 46 00 	mov	#70,	r10	;#0x0046
    4e00:	b0 12 ee 7e 	call	#0x7eee	
    4e04:	3e 50 0b 00 	add	#11,	r14	;#0x000b
    4e08:	82 4e 6c 13 	mov	r14,	&0x136c	
    4e0c:	0f 43       	clr	r15		
    4e0e:	b0 12 b4 4d 	call	#0x4db4	
    4e12:	39 b2       	bit	#8,	r9	;r2 As==11
    4e14:	01 24       	jz	$+4      	;abs 0x4e18
    4e16:	32 d2       	eint			
    4e18:	39 41       	pop	r9		
    4e1a:	3a 41       	pop	r10		
    4e1c:	3b 41       	pop	r11		
    4e1e:	30 41       	ret			

00004e20 <CC2420SpiP__Reg__write>:
    4e20:	0b 12       	push	r11		
    4e22:	0a 12       	push	r10		
    4e24:	09 12       	push	r9		
    4e26:	49 4f       	mov.b	r15,	r9	
    4e28:	0a 4e       	mov	r14,	r10	
    4e2a:	0b 42       	mov	r2,	r11	
    4e2c:	3b f2       	and	#8,	r11	;r2 As==11
    4e2e:	32 c2       	dint			
    4e30:	03 43       	nop			
    4e32:	b0 12 bc 4a 	call	#0x4abc	
    4e36:	4f 93       	tst.b	r15		
    4e38:	05 24       	jz	$+12     	;abs 0x4e44
    4e3a:	0b 93       	tst	r11		
    4e3c:	11 24       	jz	$+36     	;abs 0x4e60
    4e3e:	32 d2       	eint			
    4e40:	4f 43       	clr.b	r15		
    4e42:	0f 3c       	jmp	$+32     	;abs 0x4e62
    4e44:	0b 93       	tst	r11		
    4e46:	01 24       	jz	$+4      	;abs 0x4e4a
    4e48:	32 d2       	eint			
    4e4a:	4f 49       	mov.b	r9,	r15	
    4e4c:	b0 12 d2 46 	call	#0x46d2	
    4e50:	0f 4a       	mov	r10,	r15	
    4e52:	8f 10       	swpb	r15		
    4e54:	b0 12 d2 46 	call	#0x46d2	
    4e58:	4f 4a       	mov.b	r10,	r15	
    4e5a:	b0 12 d2 46 	call	#0x46d2	
    4e5e:	01 3c       	jmp	$+4      	;abs 0x4e62
    4e60:	4f 4b       	mov.b	r11,	r15	
    4e62:	39 41       	pop	r9		
    4e64:	3a 41       	pop	r10		
    4e66:	3b 41       	pop	r11		
    4e68:	30 41       	ret			

00004e6a <CC2420SpiP__Ram__write>:
    4e6a:	0b 12       	push	r11		
    4e6c:	0a 12       	push	r10		
    4e6e:	09 12       	push	r9		
    4e70:	08 12       	push	r8		
    4e72:	07 12       	push	r7		
    4e74:	09 4f       	mov	r15,	r9	
    4e76:	4b 4e       	mov.b	r14,	r11	
    4e78:	07 4d       	mov	r13,	r7	
    4e7a:	48 4c       	mov.b	r12,	r8	
    4e7c:	0a 42       	mov	r2,	r10	
    4e7e:	3a f2       	and	#8,	r10	;r2 As==11
    4e80:	32 c2       	dint			
    4e82:	03 43       	nop			
    4e84:	b0 12 bc 4a 	call	#0x4abc	
    4e88:	4f 93       	tst.b	r15		
    4e8a:	05 24       	jz	$+12     	;abs 0x4e96
    4e8c:	0a 93       	tst	r10		
    4e8e:	26 24       	jz	$+78     	;abs 0x4edc
    4e90:	32 d2       	eint			
    4e92:	4f 43       	clr.b	r15		
    4e94:	24 3c       	jmp	$+74     	;abs 0x4ede
    4e96:	0a 93       	tst	r10		
    4e98:	01 24       	jz	$+4      	;abs 0x4e9c
    4e9a:	32 d2       	eint			
    4e9c:	4b 4b       	mov.b	r11,	r11	
    4e9e:	0b 59       	add	r9,	r11	
    4ea0:	4f 4b       	mov.b	r11,	r15	
    4ea2:	7f d0 80 ff 	bis.b	#-128,	r15	;#0xff80
    4ea6:	b0 12 d2 46 	call	#0x46d2	
    4eaa:	49 4f       	mov.b	r15,	r9	
    4eac:	0e 4b       	mov	r11,	r14	
    4eae:	12 c3       	clrc			
    4eb0:	0e 10       	rrc	r14		
    4eb2:	4f 4e       	mov.b	r14,	r15	
    4eb4:	7f f0 c0 ff 	and.b	#-64,	r15	;#0xffc0
    4eb8:	b0 12 d2 46 	call	#0x46d2	
    4ebc:	4b 48       	mov.b	r8,	r11	
    4ebe:	4a 48       	mov.b	r8,	r10	
    4ec0:	09 3c       	jmp	$+20     	;abs 0x4ed4
    4ec2:	4e 4b       	mov.b	r11,	r14	
    4ec4:	0f 4a       	mov	r10,	r15	
    4ec6:	0f 8e       	sub	r14,	r15	
    4ec8:	0e 4f       	mov	r15,	r14	
    4eca:	0e 57       	add	r7,	r14	
    4ecc:	6f 4e       	mov.b	@r14,	r15	
    4ece:	b0 12 d2 46 	call	#0x46d2	
    4ed2:	7b 53       	add.b	#-1,	r11	;r3 As==11
    4ed4:	4b 93       	tst.b	r11		
    4ed6:	f5 23       	jnz	$-20     	;abs 0x4ec2
    4ed8:	4f 49       	mov.b	r9,	r15	
    4eda:	01 3c       	jmp	$+4      	;abs 0x4ede
    4edc:	4f 4a       	mov.b	r10,	r15	
    4ede:	37 41       	pop	r7		
    4ee0:	38 41       	pop	r8		
    4ee2:	39 41       	pop	r9		
    4ee4:	3a 41       	pop	r10		
    4ee6:	3b 41       	pop	r11		
    4ee8:	30 41       	ret			

00004eea <CC2420ControlP__writeId>:
    4eea:	0b 12       	push	r11		
    4eec:	31 50 f4 ff 	add	#-12,	r1	;#0xfff4
    4ef0:	0b 42       	mov	r2,	r11	
    4ef2:	32 c2       	dint			
    4ef4:	03 43       	nop			
    4ef6:	3d 42       	mov	#8,	r13	;r2 As==11
    4ef8:	3e 40 d6 12 	mov	#4822,	r14	;#0x12d6
    4efc:	0f 41       	mov	r1,	r15	
    4efe:	b0 12 5c 7d 	call	#0x7d5c	
    4f02:	1e 42 d2 11 	mov	&0x11d2,r14	
    4f06:	0f 41       	mov	r1,	r15	
    4f08:	3f 52       	add	#8,	r15	;r2 As==11
    4f0a:	cf 4e 00 00 	mov.b	r14,	0(r15)	;0x0000(r15)
    4f0e:	8e 10       	swpb	r14		
    4f10:	cf 4e 01 00 	mov.b	r14,	1(r15)	;0x0001(r15)
    4f14:	1e 42 1a 12 	mov	&0x121a,r14	
    4f18:	2f 53       	incd	r15		
    4f1a:	cf 4e 00 00 	mov.b	r14,	0(r15)	;0x0000(r15)
    4f1e:	8e 10       	swpb	r14		
    4f20:	cf 4e 01 00 	mov.b	r14,	1(r15)	;0x0001(r15)
    4f24:	3b b2       	bit	#8,	r11	;r2 As==11
    4f26:	01 24       	jz	$+4      	;abs 0x4f2a
    4f28:	32 d2       	eint			
    4f2a:	7c 40 0c 00 	mov.b	#12,	r12	;#0x000c
    4f2e:	0d 41       	mov	r1,	r13	
    4f30:	4e 43       	clr.b	r14		
    4f32:	3f 40 60 01 	mov	#352,	r15	;#0x0160
    4f36:	b0 12 6a 4e 	call	#0x4e6a	
    4f3a:	31 50 0c 00 	add	#12,	r1	;#0x000c
    4f3e:	3b 41       	pop	r11		
    4f40:	30 41       	ret			

00004f42 <ActiveMessageAddressC__ActiveMessageAddress__amAddress>:
    4f42:	0e 42       	mov	r2,	r14	
    4f44:	32 c2       	dint			
    4f46:	03 43       	nop			
    4f48:	1f 42 0a 11 	mov	&0x110a,r15	
    4f4c:	3e f2       	and	#8,	r14	;r2 As==11
    4f4e:	01 24       	jz	$+4      	;abs 0x4f52
    4f50:	32 d2       	eint			
    4f52:	30 41       	ret			

00004f54 <TransformCounterC__0__Counter__get>:
    4f54:	0b 12       	push	r11		
    4f56:	0a 12       	push	r10		
    4f58:	09 12       	push	r9		
    4f5a:	09 42       	mov	r2,	r9	
    4f5c:	39 f2       	and	#8,	r9	;r2 As==11
    4f5e:	32 c2       	dint			
    4f60:	03 43       	nop			
    4f62:	1a 42 34 12 	mov	&0x1234,r10	
    4f66:	1b 42 36 12 	mov	&0x1236,r11	
    4f6a:	b0 12 70 47 	call	#0x4770	
    4f6e:	1e 42 80 01 	mov	&0x0180,r14	
    4f72:	5e f3       	and.b	#1,	r14	;r3 As==01
    4f74:	04 24       	jz	$+10     	;abs 0x4f7e
    4f76:	1a 53       	inc	r10		
    4f78:	0b 63       	adc	r11		
    4f7a:	b0 12 70 47 	call	#0x4770	
    4f7e:	12 c3       	clrc			
    4f80:	0f 10       	rrc	r15		
    4f82:	0f 11       	rra	r15		
    4f84:	0f 11       	rra	r15		
    4f86:	0f 11       	rra	r15		
    4f88:	0c 4f       	mov	r15,	r12	
    4f8a:	12 c3       	clrc			
    4f8c:	0c 10       	rrc	r12		
    4f8e:	0d 43       	clr	r13		
    4f90:	0e 4a       	mov	r10,	r14	
    4f92:	0f 4b       	mov	r11,	r15	
    4f94:	4f ee       	xor.b	r14,	r15	
    4f96:	0f ee       	xor	r14,	r15	
    4f98:	8f 10       	swpb	r15		
    4f9a:	7e f3       	and.b	#-1,	r14	;r3 As==11
    4f9c:	8e 10       	swpb	r14		
    4f9e:	0e 5e       	rla	r14		
    4fa0:	0f 6f       	rlc	r15		
    4fa2:	0e 5e       	rla	r14		
    4fa4:	0f 6f       	rlc	r15		
    4fa6:	0e 5e       	rla	r14		
    4fa8:	0f 6f       	rlc	r15		
    4faa:	0e dc       	bis	r12,	r14	
    4fac:	0f dd       	bis	r13,	r15	
    4fae:	09 9d       	cmp	r13,	r9	
    4fb0:	01 24       	jz	$+4      	;abs 0x4fb4
    4fb2:	32 d2       	eint			
    4fb4:	39 41       	pop	r9		
    4fb6:	3a 41       	pop	r10		
    4fb8:	3b 41       	pop	r11		
    4fba:	30 41       	ret			

00004fbc <TransformAlarmC__0__set_alarm>:
    4fbc:	0b 12       	push	r11		
    4fbe:	0a 12       	push	r10		
    4fc0:	09 12       	push	r9		
    4fc2:	b0 12 54 4f 	call	#0x4f54	
    4fc6:	09 4e       	mov	r14,	r9	
    4fc8:	0a 4f       	mov	r15,	r10	
    4fca:	1b 42 16 12 	mov	&0x1216,r11	
    4fce:	1c 42 18 12 	mov	&0x1218,r12	
    4fd2:	0d 4b       	mov	r11,	r13	
    4fd4:	0e 4c       	mov	r12,	r14	
    4fd6:	1d 52 0c 12 	add	&0x120c,r13	
    4fda:	1e 62 0e 12 	addc	&0x120e,r14	
    4fde:	0a 9c       	cmp	r12,	r10	
    4fe0:	0b 28       	jnc	$+24     	;abs 0x4ff8
    4fe2:	0a 9c       	cmp	r12,	r10	
    4fe4:	02 20       	jnz	$+6      	;abs 0x4fea
    4fe6:	09 9b       	cmp	r11,	r9	
    4fe8:	07 28       	jnc	$+16     	;abs 0x4ff8
    4fea:	0e 9c       	cmp	r12,	r14	
    4fec:	11 28       	jnc	$+36     	;abs 0x5010
    4fee:	0e 9c       	cmp	r12,	r14	
    4ff0:	09 20       	jnz	$+20     	;abs 0x5004
    4ff2:	0d 9b       	cmp	r11,	r13	
    4ff4:	0d 28       	jnc	$+28     	;abs 0x5010
    4ff6:	06 3c       	jmp	$+14     	;abs 0x5004
    4ff8:	0e 9c       	cmp	r12,	r14	
    4ffa:	04 28       	jnc	$+10     	;abs 0x5004
    4ffc:	0c 9e       	cmp	r14,	r12	
    4ffe:	27 28       	jnc	$+80     	;abs 0x504e
    5000:	0d 9b       	cmp	r11,	r13	
    5002:	25 2c       	jc	$+76     	;abs 0x504e
    5004:	0a 9e       	cmp	r14,	r10	
    5006:	04 28       	jnc	$+10     	;abs 0x5010
    5008:	0e 9a       	cmp	r10,	r14	
    500a:	21 28       	jnc	$+68     	;abs 0x504e
    500c:	09 9d       	cmp	r13,	r9	
    500e:	1f 2c       	jc	$+64     	;abs 0x504e
    5010:	0b 4d       	mov	r13,	r11	
    5012:	0c 4e       	mov	r14,	r12	
    5014:	0b 89       	sub	r9,	r11	
    5016:	0c 7a       	subc	r10,	r12	
    5018:	0c 93       	tst	r12		
    501a:	03 20       	jnz	$+8      	;abs 0x5022
    501c:	3b 90 01 04 	cmp	#1025,	r11	;#0x0401
    5020:	18 28       	jnc	$+50     	;abs 0x5052
    5022:	0e 49       	mov	r9,	r14	
    5024:	0f 4a       	mov	r10,	r15	
    5026:	3e 50 00 04 	add	#1024,	r14	;#0x0400
    502a:	0f 63       	adc	r15		
    502c:	82 4e 16 12 	mov	r14,	&0x1216	
    5030:	82 4f 18 12 	mov	r15,	&0x1218	
    5034:	0e 4b       	mov	r11,	r14	
    5036:	0f 4c       	mov	r12,	r15	
    5038:	3e 50 00 fc 	add	#-1024,	r14	;#0xfc00
    503c:	3f 63       	addc	#-1,	r15	;r3 As==11
    503e:	82 4e 0c 12 	mov	r14,	&0x120c	
    5042:	82 4f 0e 12 	mov	r15,	&0x120e	
    5046:	3b 40 00 04 	mov	#1024,	r11	;#0x0400
    504a:	0c 43       	clr	r12		
    504c:	0a 3c       	jmp	$+22     	;abs 0x5062
    504e:	0b 43       	clr	r11		
    5050:	0c 43       	clr	r12		
    5052:	82 4d 16 12 	mov	r13,	&0x1216	
    5056:	82 4e 18 12 	mov	r14,	&0x1218	
    505a:	82 43 0c 12 	mov	#0,	&0x120c	;r3 As==00
    505e:	82 43 0e 12 	mov	#0,	&0x120e	;r3 As==00
    5062:	0b 5b       	rla	r11		
    5064:	0b 5b       	rla	r11		
    5066:	0b 5b       	rla	r11		
    5068:	0b 5b       	rla	r11		
    506a:	0b 5b       	rla	r11		
    506c:	b0 12 70 47 	call	#0x4770	
    5070:	09 59       	rla	r9		
    5072:	09 59       	rla	r9		
    5074:	09 59       	rla	r9		
    5076:	09 59       	rla	r9		
    5078:	09 59       	rla	r9		
    507a:	0e 4f       	mov	r15,	r14	
    507c:	0e 89       	sub	r9,	r14	
    507e:	0e 9b       	cmp	r11,	r14	
    5080:	04 2c       	jc	$+10     	;abs 0x508a
    5082:	0b 8e       	sub	r14,	r11	
    5084:	3b 90 03 00 	cmp	#3,	r11	;#0x0003
    5088:	06 2c       	jc	$+14     	;abs 0x5096
    508a:	b0 12 70 47 	call	#0x4770	
    508e:	2f 53       	incd	r15		
    5090:	82 4f 92 01 	mov	r15,	&0x0192	
    5094:	03 3c       	jmp	$+8      	;abs 0x509c
    5096:	0b 5f       	add	r15,	r11	
    5098:	82 4b 92 01 	mov	r11,	&0x0192	
    509c:	b2 f0 fe ff 82 01 	and	#-2,	&0x0182	;#0xfffe
    50a2:	b2 d0 10 00 82 01 	bis	#16,	&0x0182	;#0x0010
    50a8:	39 41       	pop	r9		
    50aa:	3a 41       	pop	r10		
    50ac:	3b 41       	pop	r11		
    50ae:	30 41       	ret			

000050b0 <VirtualizeTimerC__0__Timer__startOneShot>:
    50b0:	0b 12       	push	r11		
    50b2:	0a 12       	push	r10		
    50b4:	09 12       	push	r9		
    50b6:	49 4f       	mov.b	r15,	r9	
    50b8:	0a 4d       	mov	r13,	r10	
    50ba:	0b 4e       	mov	r14,	r11	
    50bc:	b0 12 54 4f 	call	#0x4f54	
    50c0:	4d 49       	mov.b	r9,	r13	
    50c2:	0c 4d       	mov	r13,	r12	
    50c4:	0c 5c       	rla	r12		
    50c6:	0c 5c       	rla	r12		
    50c8:	0c 5d       	add	r13,	r12	
    50ca:	0c 5c       	rla	r12		
    50cc:	0d 4c       	mov	r12,	r13	
    50ce:	3d 50 3a 12 	add	#4666,	r13	;#0x123a
    50d2:	8d 4e 00 00 	mov	r14,	0(r13)	;0x0000(r13)
    50d6:	8d 4f 02 00 	mov	r15,	2(r13)	;0x0002(r13)
    50da:	8d 4a 04 00 	mov	r10,	4(r13)	;0x0004(r13)
    50de:	8d 4b 06 00 	mov	r11,	6(r13)	;0x0006(r13)
    50e2:	fc d0 03 00 42 12 	bis.b	#3,	4674(r12);#0x0003, 0x1242(r12)
    50e8:	5f 43       	mov.b	#1,	r15	;r3 As==01
    50ea:	b0 12 2c 4b 	call	#0x4b2c	
    50ee:	39 41       	pop	r9		
    50f0:	3a 41       	pop	r10		
    50f2:	3b 41       	pop	r11		
    50f4:	30 41       	ret			

000050f6 <AlarmToTimerC__0__start>:
    50f6:	0b 12       	push	r11		
    50f8:	82 4c e8 12 	mov	r12,	&0x12e8	
    50fc:	82 4d ea 12 	mov	r13,	&0x12ea	
    5100:	d2 41 04 00 98 11 	mov.b	4(r1),	&0x1198	;0x0004(r1)
    5106:	0b 42       	mov	r2,	r11	
    5108:	32 c2       	dint			
    510a:	03 43       	nop			
    510c:	82 4e 16 12 	mov	r14,	&0x1216	
    5110:	82 4f 18 12 	mov	r15,	&0x1218	
    5114:	82 4c 0c 12 	mov	r12,	&0x120c	
    5118:	82 4d 0e 12 	mov	r13,	&0x120e	
    511c:	b0 12 bc 4f 	call	#0x4fbc	
    5120:	3b b2       	bit	#8,	r11	;r2 As==11
    5122:	01 24       	jz	$+4      	;abs 0x5126
    5124:	32 d2       	eint			
    5126:	3b 41       	pop	r11		
    5128:	30 41       	ret			

0000512a <CC2420CsmaP__SplitControlState__forceState>:
    512a:	0e 42       	mov	r2,	r14	
    512c:	32 c2       	dint			
    512e:	03 43       	nop			
    5130:	c2 4f a1 12 	mov.b	r15,	&0x12a1	
    5134:	3e f2       	and	#8,	r14	;r2 As==11
    5136:	01 24       	jz	$+4      	;abs 0x513a
    5138:	32 d2       	eint			
    513a:	30 41       	ret			

0000513c <CC2420TransmitP__loadTXFIFO>:
    513c:	0b 12       	push	r11		
    513e:	0a 12       	push	r10		
    5140:	09 12       	push	r9		
    5142:	1f 42 d8 11 	mov	&0x11d8,r15	
    5146:	0a 4f       	mov	r15,	r10	
    5148:	2a 82       	sub	#4,	r10	;r2 As==10
    514a:	5b 4f 26 00 	mov.b	38(r15),r11	;0x0026(r15)
    514e:	4b 93       	tst.b	r11		
    5150:	02 20       	jnz	$+6      	;abs 0x5156
    5152:	7b 50 1f 00 	add.b	#31,	r11	;#0x001f
    5156:	b0 12 18 4b 	call	#0x4b18	
    515a:	c2 9b 99 11 	cmp.b	r11,	&0x1199	
    515e:	07 24       	jz	$+16     	;abs 0x516e
    5160:	4e 4b       	mov.b	r11,	r14	
    5162:	3e d0 e0 80 	bis	#-32544,r14	;#0x80e0
    5166:	7f 40 15 00 	mov.b	#21,	r15	;#0x0015
    516a:	b0 12 20 4e 	call	#0x4e20	
    516e:	c2 4b 99 11 	mov.b	r11,	&0x1199	
    5172:	69 4a       	mov.b	@r10,	r9	
    5174:	0b 42       	mov	r2,	r11	
    5176:	3b f2       	and	#8,	r11	;r2 As==11
    5178:	32 c2       	dint			
    517a:	03 43       	nop			
    517c:	b0 12 bc 4a 	call	#0x4abc	
    5180:	4f 93       	tst.b	r15		
    5182:	04 24       	jz	$+10     	;abs 0x518c
    5184:	0b 93       	tst	r11		
    5186:	13 24       	jz	$+40     	;abs 0x51ae
    5188:	32 d2       	eint			
    518a:	11 3c       	jmp	$+36     	;abs 0x51ae
    518c:	0b 93       	tst	r11		
    518e:	01 24       	jz	$+4      	;abs 0x5192
    5190:	32 d2       	eint			
    5192:	b2 40 3e 00 1e 12 	mov	#62,	&0x121e	;#0x003e
    5198:	7f 40 3e 00 	mov.b	#62,	r15	;#0x003e
    519c:	b0 12 d2 46 	call	#0x46d2	
    51a0:	4d 49       	mov.b	r9,	r13	
    51a2:	7d 53       	add.b	#-1,	r13	;r3 As==11
    51a4:	4d 4d       	mov.b	r13,	r13	
    51a6:	0e 43       	clr	r14		
    51a8:	0f 4a       	mov	r10,	r15	
    51aa:	b0 12 ac 4b 	call	#0x4bac	
    51ae:	39 41       	pop	r9		
    51b0:	3a 41       	pop	r10		
    51b2:	3b 41       	pop	r11		
    51b4:	30 41       	ret			

000051b6 <TMsgBeaconC__Leds__led0Toggle>:
    51b6:	0f 42       	mov	r2,	r15	
    51b8:	32 c2       	dint			
    51ba:	03 43       	nop			
    51bc:	f2 e0 10 00 31 00 	xor.b	#16,	&0x0031	;#0x0010
    51c2:	3f f2       	and	#8,	r15	;r2 As==11
    51c4:	01 24       	jz	$+4      	;abs 0x51c8
    51c6:	32 d2       	eint			
    51c8:	30 41       	ret			

000051ca <TMsgBeaconC__Leds__led1Toggle>:
    51ca:	0f 42       	mov	r2,	r15	
    51cc:	32 c2       	dint			
    51ce:	03 43       	nop			
    51d0:	f2 e0 20 00 31 00 	xor.b	#32,	&0x0031	;#0x0020
    51d6:	3f f2       	and	#8,	r15	;r2 As==11
    51d8:	01 24       	jz	$+4      	;abs 0x51dc
    51da:	32 d2       	eint			
    51dc:	30 41       	ret			

000051de <TMsgBeaconC__Leds__led2Toggle>:
    51de:	0f 42       	mov	r2,	r15	
    51e0:	32 c2       	dint			
    51e2:	03 43       	nop			
    51e4:	f2 e0 40 00 31 00 	xor.b	#64,	&0x0031	;#0x0040
    51ea:	3f f2       	and	#8,	r15	;r2 As==11
    51ec:	01 24       	jz	$+4      	;abs 0x51f0
    51ee:	32 d2       	eint			
    51f0:	30 41       	ret			

000051f2 <CC2420ControlP__RSTN__clr>:
    51f2:	0f 42       	mov	r2,	r15	
    51f4:	32 c2       	dint			
    51f6:	03 43       	nop			
    51f8:	f2 f0 bf ff 1d 00 	and.b	#-65,	&0x001d	;#0xffbf
    51fe:	3f f2       	and	#8,	r15	;r2 As==11
    5200:	01 24       	jz	$+4      	;abs 0x5204
    5202:	32 d2       	eint			
    5204:	30 41       	ret			

00005206 <CC2420ControlP__RSTN__set>:
    5206:	0f 42       	mov	r2,	r15	
    5208:	32 c2       	dint			
    520a:	03 43       	nop			
    520c:	f2 d0 40 00 1d 00 	bis.b	#64,	&0x001d	;#0x0040
    5212:	3f f2       	and	#8,	r15	;r2 As==11
    5214:	01 24       	jz	$+4      	;abs 0x5218
    5216:	32 d2       	eint			
    5218:	30 41       	ret			

0000521a <CC2420ControlP__writeFsctrl>:
    521a:	0e 42       	mov	r2,	r14	
    521c:	32 c2       	dint			
    521e:	03 43       	nop			
    5220:	5f 42 e0 12 	mov.b	&0x12e0,r15	
    5224:	3e f2       	and	#8,	r14	;r2 As==11
    5226:	01 24       	jz	$+4      	;abs 0x522a
    5228:	32 d2       	eint			
    522a:	4f 4f       	mov.b	r15,	r15	
    522c:	0e 4f       	mov	r15,	r14	
    522e:	0e 5e       	rla	r14		
    5230:	0e 5f       	add	r15,	r14	
    5232:	0e 5f       	add	r15,	r14	
    5234:	0e 5f       	add	r15,	r14	
    5236:	3e 50 2e 01 	add	#302,	r14	;#0x012e
    523a:	3e d0 00 40 	bis	#16384,	r14	;#0x4000
    523e:	7f 40 18 00 	mov.b	#24,	r15	;#0x0018
    5242:	b0 12 20 4e 	call	#0x4e20	
    5246:	30 41       	ret			

00005248 <CC2420ControlP__writeMdmctrl0>:
    5248:	0b 12       	push	r11		
    524a:	0b 42       	mov	r2,	r11	
    524c:	3b f2       	and	#8,	r11	;r2 As==11
    524e:	32 c2       	dint			
    5250:	03 43       	nop			
    5252:	c2 93 9a 11 	tst.b	&0x119a	
    5256:	04 24       	jz	$+10     	;abs 0x5260
    5258:	1e 43       	mov	#1,	r14	;r3 As==01
    525a:	c2 93 42 13 	tst.b	&0x1342	
    525e:	01 20       	jnz	$+4      	;abs 0x5262
    5260:	0e 43       	clr	r14		
    5262:	3e f0 ff 00 	and	#255,	r14	;#0x00ff
    5266:	8e 10       	swpb	r14		
    5268:	0e 5e       	rla	r14		
    526a:	0e 5e       	rla	r14		
    526c:	0e 5e       	rla	r14		
    526e:	c2 93 d4 11 	tst.b	&0x11d4	
    5272:	04 24       	jz	$+10     	;abs 0x527c
    5274:	1f 43       	mov	#1,	r15	;r3 As==01
    5276:	c2 93 d4 12 	tst.b	&0x12d4	
    527a:	01 20       	jnz	$+4      	;abs 0x527e
    527c:	0f 43       	clr	r15		
    527e:	3e d0 e2 22 	bis	#8930,	r14	;#0x22e2
    5282:	0f 5f       	rla	r15		
    5284:	0f 5f       	rla	r15		
    5286:	0f 5f       	rla	r15		
    5288:	0f 5f       	rla	r15		
    528a:	0e df       	bis	r15,	r14	
    528c:	7f 40 11 00 	mov.b	#17,	r15	;#0x0011
    5290:	b0 12 20 4e 	call	#0x4e20	
    5294:	0b 93       	tst	r11		
    5296:	01 24       	jz	$+4      	;abs 0x529a
    5298:	32 d2       	eint			
    529a:	3b 41       	pop	r11		
    529c:	30 41       	ret			

0000529e <UserButtonP__Notify__notify>:
    529e:	0b 12       	push	r11		
    52a0:	0b 4f       	mov	r15,	r11	
    52a2:	1f 93       	cmp	#1,	r15	;r3 As==01
    52a4:	21 20       	jnz	$+68     	;abs 0x52e8
    52a6:	b0 12 de 51 	call	#0x51de	
    52aa:	4f 4b       	mov.b	r11,	r15	
    52ac:	b0 12 4c 4c 	call	#0x4c4c	
    52b0:	4f 93       	tst.b	r15		
    52b2:	1e 24       	jz	$+62     	;abs 0x52f0
    52b4:	b0 12 ca 46 	call	#0x46ca	
    52b8:	f2 f0 7f 00 00 00 	and.b	#127,	&0x0000	;#0x007f
    52be:	f2 40 61 00 77 00 	mov.b	#97,	&0x0077	;#0x0061
    52c4:	c2 93 02 00 	tst.b	&0x0002	
    52c8:	fd 37       	jge	$-4      	;abs 0x52c4
    52ca:	b0 12 ca 46 	call	#0x46ca	
    52ce:	0f 42       	mov	r2,	r15	
    52d0:	32 c2       	dint			
    52d2:	03 43       	nop			
    52d4:	f2 f0 7f 00 02 00 	and.b	#127,	&0x0002	;#0x007f
    52da:	f2 d0 80 ff 00 00 	bis.b	#-128,	&0x0000	;#0xff80
    52e0:	3f f2       	and	#8,	r15	;r2 As==11
    52e2:	06 24       	jz	$+14     	;abs 0x52f0
    52e4:	32 d2       	eint			
    52e6:	04 3c       	jmp	$+10     	;abs 0x52f0
    52e8:	0f 93       	tst	r15		
    52ea:	02 20       	jnz	$+6      	;abs 0x52f0
    52ec:	b0 12 de 51 	call	#0x51de	
    52f0:	3b 41       	pop	r11		
    52f2:	30 41       	ret			

000052f4 <Msp430InterruptC__2__enable>:
    52f4:	0b 12       	push	r11		
    52f6:	0a 12       	push	r10		
    52f8:	4a 4f       	mov.b	r15,	r10	
    52fa:	0b 42       	mov	r2,	r11	
    52fc:	3b f2       	and	#8,	r11	;r2 As==11
    52fe:	32 c2       	dint			
    5300:	03 43       	nop			
    5302:	f2 f0 7f 00 2d 00 	and.b	#127,	&0x002d	;#0x007f
    5308:	b0 12 68 47 	call	#0x4768	
    530c:	4a 93       	tst.b	r10		
    530e:	04 24       	jz	$+10     	;abs 0x5318
    5310:	f2 f0 7f 00 2c 00 	and.b	#127,	&0x002c	;#0x007f
    5316:	03 3c       	jmp	$+8      	;abs 0x531e
    5318:	f2 d0 80 ff 2c 00 	bis.b	#-128,	&0x002c	;#0xff80
    531e:	f2 d0 80 ff 2d 00 	bis.b	#-128,	&0x002d	;#0xff80
    5324:	0b 93       	tst	r11		
    5326:	01 24       	jz	$+4      	;abs 0x532a
    5328:	32 d2       	eint			
    532a:	0f 43       	clr	r15		
    532c:	3a 41       	pop	r10		
    532e:	3b 41       	pop	r11		
    5330:	30 41       	ret			

00005332 <CC2420TransmitP__Send__sendDone.clone.102>:
    5332:	0e 42       	mov	r2,	r14	
    5334:	32 c2       	dint			
    5336:	03 43       	nop			
    5338:	82 4f 18 11 	mov	r15,	&0x1118	
    533c:	3e f2       	and	#8,	r14	;r2 As==11
    533e:	01 24       	jz	$+4      	;abs 0x5342
    5340:	32 d2       	eint			
    5342:	6f 42       	mov.b	#4,	r15	;r2 As==10
    5344:	b0 12 2c 4b 	call	#0x4b2c	
    5348:	30 41       	ret			

0000534a <CC2420ActiveMessageP__AMSend__sendDone.clone.127>:
    534a:	7f 90 24 00 	cmp.b	#36,	r15	;#0x0024
    534e:	11 24       	jz	$+36     	;abs 0x5372
    5350:	7f 90 25 00 	cmp.b	#37,	r15	;#0x0025
    5354:	07 2c       	jc	$+16     	;abs 0x5364
    5356:	7f 90 21 00 	cmp.b	#33,	r15	;#0x0021
    535a:	0b 24       	jz	$+24     	;abs 0x5372
    535c:	7f 90 23 00 	cmp.b	#35,	r15	;#0x0023
    5360:	10 20       	jnz	$+34     	;abs 0x5382
    5362:	07 3c       	jmp	$+16     	;abs 0x5372
    5364:	7f 90 26 00 	cmp.b	#38,	r15	;#0x0026
    5368:	04 24       	jz	$+10     	;abs 0x5372
    536a:	7f 90 45 00 	cmp.b	#69,	r15	;#0x0045
    536e:	09 20       	jnz	$+20     	;abs 0x5382
    5370:	03 3c       	jmp	$+8      	;abs 0x5378
    5372:	b0 12 ca 51 	call	#0x51ca	
    5376:	30 41       	ret			
    5378:	b0 12 ca 51 	call	#0x51ca	
    537c:	b0 12 de 51 	call	#0x51de	
    5380:	30 41       	ret			
    5382:	f2 43 0d 11 	mov.b	#-1,	&0x110d	;r3 As==11
    5386:	30 41       	ret			

00005388 <ArbiterP__0__ResourceConfigure__unconfigure.clone.139>:
    5388:	5f 43       	mov.b	#1,	r15	;r3 As==01
    538a:	b0 12 e4 45 	call	#0x45e4	
    538e:	b0 12 e0 47 	call	#0x47e0	
    5392:	30 41       	ret			

00005394 <CC2420SpiP__attemptRelease>:
    5394:	c2 93 1c 11 	tst.b	&0x111c	
    5398:	2e 20       	jnz	$+94     	;abs 0x53f6
    539a:	f2 93 05 11 	cmp.b	#-1,	&0x1105	;r3 As==11
    539e:	2b 20       	jnz	$+88     	;abs 0x53f6
    53a0:	b0 12 bc 4a 	call	#0x4abc	
    53a4:	4f 93       	tst.b	r15		
    53a6:	27 24       	jz	$+80     	;abs 0x53f6
    53a8:	d2 43 e1 12 	mov.b	#1,	&0x12e1	;r3 As==01
    53ac:	c2 93 54 11 	tst.b	&0x1154	
    53b0:	02 24       	jz	$+6      	;abs 0x53b6
    53b2:	c2 43 e1 12 	mov.b	#0,	&0x12e1	;r3 As==00
    53b6:	c2 93 e1 12 	tst.b	&0x12e1	
    53ba:	1f 24       	jz	$+64     	;abs 0x53fa
    53bc:	e2 92 d1 11 	cmp.b	#4,	&0x11d1	;r2 As==10
    53c0:	1f 20       	jnz	$+64     	;abs 0x5400
    53c2:	c2 93 08 11 	tst.b	&0x1108	
    53c6:	1e 20       	jnz	$+62     	;abs 0x5404
    53c8:	f2 93 06 11 	cmp.b	#-1,	&0x1106	;r3 As==11
    53cc:	05 20       	jnz	$+12     	;abs 0x53d8
    53ce:	e2 43 08 11 	mov.b	#2,	&0x1108	;r3 As==10
    53d2:	c2 43 d1 11 	mov.b	#0,	&0x11d1	;r3 As==00
    53d6:	0c 3c       	jmp	$+26     	;abs 0x53f0
    53d8:	b0 12 16 46 	call	#0x4616	
    53dc:	c2 4f 09 11 	mov.b	r15,	&0x1109	
    53e0:	f2 43 08 11 	mov.b	#-1,	&0x1108	;r3 As==11
    53e4:	e2 43 d1 11 	mov.b	#2,	&0x11d1	;r3 As==10
    53e8:	7f 40 09 00 	mov.b	#9,	r15	;#0x0009
    53ec:	b0 12 2c 4b 	call	#0x4b2c	
    53f0:	b0 12 88 53 	call	#0x5388	
    53f4:	05 3c       	jmp	$+12     	;abs 0x5400
    53f6:	1f 43       	mov	#1,	r15	;r3 As==01
    53f8:	30 41       	ret			
    53fa:	3f 40 05 00 	mov	#5,	r15	;#0x0005
    53fe:	30 41       	ret			
    5400:	0f 43       	clr	r15		
    5402:	30 41       	ret			
    5404:	0f 43       	clr	r15		
    5406:	30 41       	ret			

00005408 <CC2420TransmitP__signalDone>:
    5408:	0b 12       	push	r11		
    540a:	0b 4f       	mov	r15,	r11	
    540c:	92 43 20 11 	mov	#1,	&0x1120	;r3 As==01
    5410:	c2 43 54 11 	mov.b	#0,	&0x1154	;r3 As==00
    5414:	b0 12 94 53 	call	#0x5394	
    5418:	0f 4b       	mov	r11,	r15	
    541a:	b0 12 32 53 	call	#0x5332	
    541e:	3b 41       	pop	r11		
    5420:	30 41       	ret			

00005422 <CC2420SpiP__Resource__release>:
    5422:	0b 12       	push	r11		
    5424:	0a 12       	push	r10		
    5426:	09 12       	push	r9		
    5428:	08 12       	push	r8		
    542a:	09 42       	mov	r2,	r9	
    542c:	39 f2       	and	#8,	r9	;r2 As==11
    542e:	32 c2       	dint			
    5430:	03 43       	nop			
    5432:	c2 9f 05 11 	cmp.b	r15,	&0x1105	
    5436:	04 24       	jz	$+10     	;abs 0x5440
    5438:	09 93       	tst	r9		
    543a:	35 24       	jz	$+108    	;abs 0x54a6
    543c:	32 d2       	eint			
    543e:	33 3c       	jmp	$+104    	;abs 0x54a6
    5440:	f2 43 05 11 	mov.b	#-1,	&0x1105	;r3 As==11
    5444:	5f 42 1c 11 	mov.b	&0x111c,r15	
    5448:	4f 93       	tst.b	r15		
    544a:	03 24       	jz	$+8      	;abs 0x5452
    544c:	4c 43       	clr.b	r12		
    544e:	48 4f       	mov.b	r15,	r8	
    5450:	05 3c       	jmp	$+12     	;abs 0x545c
    5452:	b0 12 6c 4c 	call	#0x4c6c	
    5456:	b0 12 94 53 	call	#0x5394	
    545a:	1d 3c       	jmp	$+60     	;abs 0x5496
    545c:	7a 40 05 00 	mov.b	#5,	r10	;#0x0005
    5460:	b0 12 d2 7e 	call	#0x7ed2	
    5464:	4c 4e       	mov.b	r14,	r12	
    5466:	0b 4c       	mov	r12,	r11	
    5468:	0d 48       	mov	r8,	r13	
    546a:	0b 93       	tst	r11		
    546c:	03 24       	jz	$+8      	;abs 0x5474
    546e:	0d 11       	rra	r13		
    5470:	1b 83       	dec	r11		
    5472:	fd 23       	jnz	$-4      	;abs 0x546e
    5474:	1d f3       	and	#1,	r13	;r3 As==01
    5476:	14 24       	jz	$+42     	;abs 0x54a0
    5478:	c2 4e 05 11 	mov.b	r14,	&0x1105	
    547c:	1e 43       	mov	#1,	r14	;r3 As==01
    547e:	0c 93       	tst	r12		
    5480:	03 24       	jz	$+8      	;abs 0x5488
    5482:	0e 5e       	rla	r14		
    5484:	1c 83       	dec	r12		
    5486:	fd 23       	jnz	$-4      	;abs 0x5482
    5488:	4f ce       	bic.b	r14,	r15	
    548a:	c2 4f 1c 11 	mov.b	r15,	&0x111c	
    548e:	7f 40 07 00 	mov.b	#7,	r15	;#0x0007
    5492:	b0 12 2c 4b 	call	#0x4b2c	
    5496:	09 93       	tst	r9		
    5498:	08 24       	jz	$+18     	;abs 0x54aa
    549a:	32 d2       	eint			
    549c:	0f 43       	clr	r15		
    549e:	06 3c       	jmp	$+14     	;abs 0x54ac
    54a0:	4c 4e       	mov.b	r14,	r12	
    54a2:	5c 53       	inc.b	r12		
    54a4:	db 3f       	jmp	$-72     	;abs 0x545c
    54a6:	1f 43       	mov	#1,	r15	;r3 As==01
    54a8:	01 3c       	jmp	$+4      	;abs 0x54ac
    54aa:	0f 49       	mov	r9,	r15	
    54ac:	38 41       	pop	r8		
    54ae:	39 41       	pop	r9		
    54b0:	3a 41       	pop	r10		
    54b2:	3b 41       	pop	r11		
    54b4:	30 41       	ret			

000054b6 <CC2420ReceiveP__SpiResource__release>:
    54b6:	6f 42       	mov.b	#4,	r15	;r2 As==10
    54b8:	b0 12 22 54 	call	#0x5422	
    54bc:	30 41       	ret			

000054be <CC2420TransmitP__releaseSpiResource>:
    54be:	7f 40 03 00 	mov.b	#3,	r15	;#0x0003
    54c2:	b0 12 22 54 	call	#0x5422	
    54c6:	0f 43       	clr	r15		
    54c8:	30 41       	ret			

000054ca <CC2420TransmitP__attemptSend>:
    54ca:	0b 12       	push	r11		
    54cc:	0a 12       	push	r10		
    54ce:	0b 42       	mov	r2,	r11	
    54d0:	3b f2       	and	#8,	r11	;r2 As==11
    54d2:	32 c2       	dint			
    54d4:	03 43       	nop			
    54d6:	b2 92 20 11 	cmp	#8,	&0x1120	;r2 As==11
    54da:	10 20       	jnz	$+34     	;abs 0x54fc
    54dc:	b0 12 fc 4a 	call	#0x4afc	
    54e0:	b0 12 be 54 	call	#0x54be	
    54e4:	b0 12 80 4c 	call	#0x4c80	
    54e8:	92 43 20 11 	mov	#1,	&0x1120	;r3 As==01
    54ec:	3f 40 03 00 	mov	#3,	r15	;#0x0003
    54f0:	b0 12 32 53 	call	#0x5332	
    54f4:	0b 93       	tst	r11		
    54f6:	31 24       	jz	$+100    	;abs 0x555a
    54f8:	32 d2       	eint			
    54fa:	2f 3c       	jmp	$+96     	;abs 0x555a
    54fc:	b0 12 18 4b 	call	#0x4b18	
    5500:	c2 93 70 13 	tst.b	&0x1370	
    5504:	03 24       	jz	$+8      	;abs 0x550c
    5506:	7f 40 05 00 	mov.b	#5,	r15	;#0x0005
    550a:	01 3c       	jmp	$+4      	;abs 0x550e
    550c:	6f 42       	mov.b	#4,	r15	;r2 As==10
    550e:	b0 12 c6 4a 	call	#0x4ac6	
    5512:	0a 4f       	mov	r15,	r10	
    5514:	3a f2       	and	#8,	r10	;r2 As==11
    5516:	06 20       	jnz	$+14     	;abs 0x5524
    5518:	4f 4a       	mov.b	r10,	r15	
    551a:	b0 12 c6 4a 	call	#0x4ac6	
    551e:	3f f2       	and	#8,	r15	;r2 As==11
    5520:	0f 9a       	cmp	r10,	r15	
    5522:	04 20       	jnz	$+10     	;abs 0x552c
    5524:	5a 43       	mov.b	#1,	r10	;r3 As==01
    5526:	3f 40 03 00 	mov	#3,	r15	;#0x0003
    552a:	02 3c       	jmp	$+6      	;abs 0x5530
    552c:	3f 40 05 00 	mov	#5,	r15	;#0x0005
    5530:	82 4f 20 11 	mov	r15,	&0x1120	
    5534:	b0 12 80 4c 	call	#0x4c80	
    5538:	0b 93       	tst	r11		
    553a:	01 24       	jz	$+4      	;abs 0x553e
    553c:	32 d2       	eint			
    553e:	4a 93       	tst.b	r10		
    5540:	07 24       	jz	$+16     	;abs 0x5550
    5542:	c2 43 30 11 	mov.b	#0,	&0x1130	;r3 As==00
    5546:	b0 12 be 54 	call	#0x54be	
    554a:	b0 12 ea 4d 	call	#0x4dea	
    554e:	05 3c       	jmp	$+12     	;abs 0x555a
    5550:	3e 40 40 01 	mov	#320,	r14	;#0x0140
    5554:	0f 43       	clr	r15		
    5556:	b0 12 b4 4d 	call	#0x4db4	
    555a:	3a 41       	pop	r10		
    555c:	3b 41       	pop	r11		
    555e:	30 41       	ret			

00005560 <StateImplP__State__requestState.clone.140>:
    5560:	0e 42       	mov	r2,	r14	
    5562:	3e f2       	and	#8,	r14	;r2 As==11
    5564:	32 c2       	dint			
    5566:	03 43       	nop			
    5568:	4f 4f       	mov.b	r15,	r15	
    556a:	3f 50 a0 12 	add	#4768,	r15	;#0x12a0
    556e:	cf 93 00 00 	tst.b	0(r15)		;0x0000(r15)
    5572:	04 20       	jnz	$+10     	;abs 0x557c
    5574:	df 43 00 00 	mov.b	#1,	0(r15)	;r3 As==01, 0x0000(r15)
    5578:	0f 43       	clr	r15		
    557a:	01 3c       	jmp	$+4      	;abs 0x557e
    557c:	1f 43       	mov	#1,	r15	;r3 As==01
    557e:	0e 93       	tst	r14		
    5580:	01 24       	jz	$+4      	;abs 0x5584
    5582:	32 d2       	eint			
    5584:	30 41       	ret			

00005586 <CC2420SpiP__Resource__request>:
    5586:	0b 12       	push	r11		
    5588:	0a 12       	push	r10		
    558a:	4a 4f       	mov.b	r15,	r10	
    558c:	0b 42       	mov	r2,	r11	
    558e:	3b f2       	and	#8,	r11	;r2 As==11
    5590:	32 c2       	dint			
    5592:	03 43       	nop			
    5594:	4f 43       	clr.b	r15		
    5596:	b0 12 60 55 	call	#0x5560	
    559a:	0f 93       	tst	r15		
    559c:	2c 20       	jnz	$+90     	;abs 0x55f6
    559e:	c2 4a 05 11 	mov.b	r10,	&0x1105	
    55a2:	b0 12 4c 4c 	call	#0x4c4c	
    55a6:	4f 93       	tst.b	r15		
    55a8:	05 24       	jz	$+12     	;abs 0x55b4
    55aa:	7f 40 07 00 	mov.b	#7,	r15	;#0x0007
    55ae:	b0 12 2c 4b 	call	#0x4b2c	
    55b2:	2a 3c       	jmp	$+86     	;abs 0x5608
    55b4:	c2 9f 09 11 	cmp.b	r15,	&0x1109	
    55b8:	27 24       	jz	$+80     	;abs 0x5608
    55ba:	f2 93 10 12 	cmp.b	#-1,	&0x1210	;r3 As==11
    55be:	24 20       	jnz	$+74     	;abs 0x5608
    55c0:	c2 9f 07 11 	cmp.b	r15,	&0x1107	
    55c4:	21 24       	jz	$+68     	;abs 0x5608
    55c6:	f2 93 06 11 	cmp.b	#-1,	&0x1106	;r3 As==11
    55ca:	03 20       	jnz	$+8      	;abs 0x55d2
    55cc:	c2 4f 06 11 	mov.b	r15,	&0x1106	
    55d0:	04 3c       	jmp	$+10     	;abs 0x55da
    55d2:	5e 42 07 11 	mov.b	&0x1107,r14	
    55d6:	ce 4f 10 12 	mov.b	r15,	4624(r14);0x1210(r14)
    55da:	c2 43 07 11 	mov.b	#0,	&0x1107	;r3 As==00
    55de:	c2 93 d1 11 	tst.b	&0x11d1	
    55e2:	12 20       	jnz	$+38     	;abs 0x5608
    55e4:	d2 43 d1 11 	mov.b	#1,	&0x11d1	;r3 As==01
    55e8:	b0 12 16 46 	call	#0x4616	
    55ec:	c2 4f 09 11 	mov.b	r15,	&0x1109	
    55f0:	b0 12 6a 4b 	call	#0x4b6a	
    55f4:	09 3c       	jmp	$+20     	;abs 0x5608
    55f6:	1e 43       	mov	#1,	r14	;r3 As==01
    55f8:	4f 4a       	mov.b	r10,	r15	
    55fa:	0f 93       	tst	r15		
    55fc:	03 24       	jz	$+8      	;abs 0x5604
    55fe:	0e 5e       	rla	r14		
    5600:	1f 83       	dec	r15		
    5602:	fd 23       	jnz	$-4      	;abs 0x55fe
    5604:	c2 de 1c 11 	bis.b	r14,	&0x111c	
    5608:	0b 93       	tst	r11		
    560a:	01 24       	jz	$+4      	;abs 0x560e
    560c:	32 d2       	eint			
    560e:	0f 43       	clr	r15		
    5610:	3a 41       	pop	r10		
    5612:	3b 41       	pop	r11		
    5614:	30 41       	ret			

00005616 <ArbiterP__0__ResourceConfigure__configure>:
    5616:	0b 12       	push	r11		
    5618:	0a 12       	push	r10		
    561a:	4b 4f       	mov.b	r15,	r11	
    561c:	4f 93       	tst.b	r15		
    561e:	03 24       	jz	$+8      	;abs 0x5626
    5620:	5f 93       	cmp.b	#1,	r15	;r3 As==01
    5622:	9c 20       	jnz	$+314    	;abs 0x575c
    5624:	2e 3c       	jmp	$+94     	;abs 0x5682
    5626:	0a 42       	mov	r2,	r10	
    5628:	32 c2       	dint			
    562a:	03 43       	nop			
    562c:	5f 43       	mov.b	#1,	r15	;r3 As==01
    562e:	b0 12 e4 45 	call	#0x45e4	
    5632:	b0 12 bc 46 	call	#0x46bc	
    5636:	b0 12 06 46 	call	#0x4606	
    563a:	5f 42 4c 6f 	mov.b	&0x6f4c,r15	
    563e:	7f d0 05 00 	bis.b	#5,	r15	;#0x0005
    5642:	c2 4f 70 00 	mov.b	r15,	&0x0070	
    5646:	d2 42 4d 6f 71 00 	mov.b	&0x6f4d,&0x0071	
    564c:	1f 42 4a 6f 	mov	&0x6f4a,r15	
    5650:	c2 4f 74 00 	mov.b	r15,	&0x0074	
    5654:	8f 10       	swpb	r15		
    5656:	c2 4f 75 00 	mov.b	r15,	&0x0075	
    565a:	c2 4b 73 00 	mov.b	r11,	&0x0073	
    565e:	e2 d3 1b 00 	bis.b	#2,	&0x001b	;r3 As==10
    5662:	e2 d2 1b 00 	bis.b	#4,	&0x001b	;r2 As==10
    5666:	f2 d2 1b 00 	bis.b	#8,	&0x001b	;r2 As==11
    566a:	f2 d0 40 00 04 00 	bis.b	#64,	&0x0004	;#0x0040
    5670:	4f 4b       	mov.b	r11,	r15	
    5672:	b0 12 e4 45 	call	#0x45e4	
    5676:	b0 12 a4 46 	call	#0x46a4	
    567a:	b0 12 9c 46 	call	#0x469c	
    567e:	0f 4a       	mov	r10,	r15	
    5680:	6a 3c       	jmp	$+214    	;abs 0x5756
    5682:	1f 42 62 6f 	mov	&0x6f62,r15	
    5686:	12 c3       	clrc			
    5688:	0f 10       	rrc	r15		
    568a:	c2 4f 3a 13 	mov.b	r15,	&0x133a	
    568e:	4f 93       	tst.b	r15		
    5690:	02 20       	jnz	$+6      	;abs 0x5696
    5692:	c2 4b 3a 13 	mov.b	r11,	&0x133a	
    5696:	0b 42       	mov	r2,	r11	
    5698:	3b f2       	and	#8,	r11	;r2 As==11
    569a:	32 c2       	dint			
    569c:	03 43       	nop			
    569e:	5f 43       	mov.b	#1,	r15	;r3 As==01
    56a0:	b0 12 e4 45 	call	#0x45e4	
    56a4:	b0 12 bc 46 	call	#0x46bc	
    56a8:	b0 12 e0 47 	call	#0x47e0	
    56ac:	5f 42 65 6f 	mov.b	&0x6f65,r15	
    56b0:	7f f0 fa ff 	and.b	#-6,	r15	;#0xfffa
    56b4:	5f d3       	bis.b	#1,	r15	;r3 As==01
    56b6:	c2 4f 70 00 	mov.b	r15,	&0x0070	
    56ba:	d2 42 66 6f 71 00 	mov.b	&0x6f66,&0x0071	
    56c0:	d2 42 67 6f 72 00 	mov.b	&0x6f67,&0x0072	
    56c6:	1f 42 62 6f 	mov	&0x6f62,r15	
    56ca:	c2 4f 74 00 	mov.b	r15,	&0x0074	
    56ce:	8f 10       	swpb	r15		
    56d0:	c2 4f 75 00 	mov.b	r15,	&0x0075	
    56d4:	d2 42 64 6f 73 00 	mov.b	&0x6f64,&0x0073	
    56da:	5f 42 68 6f 	mov.b	&0x6f68,r15	
    56de:	7f f0 03 00 	and.b	#3,	r15	;#0x0003
    56e2:	7f 90 03 00 	cmp.b	#3,	r15	;#0x0003
    56e6:	08 20       	jnz	$+18     	;abs 0x56f8
    56e8:	b0 12 ac 46 	call	#0x46ac	
    56ec:	b0 12 b4 46 	call	#0x46b4	
    56f0:	f2 d0 c0 ff 04 00 	bis.b	#-64,	&0x0004	;#0xffc0
    56f6:	1c 3c       	jmp	$+58     	;abs 0x5730
    56f8:	6f 93       	cmp.b	#2,	r15	;r3 As==10
    56fa:	0b 20       	jnz	$+24     	;abs 0x5712
    56fc:	f2 f0 7f 00 04 00 	and.b	#127,	&0x0004	;#0x007f
    5702:	b0 12 fe 45 	call	#0x45fe	
    5706:	b0 12 b4 46 	call	#0x46b4	
    570a:	f2 d0 40 00 04 00 	bis.b	#64,	&0x0004	;#0x0040
    5710:	0f 3c       	jmp	$+32     	;abs 0x5730
    5712:	5f 93       	cmp.b	#1,	r15	;r3 As==01
    5714:	0b 20       	jnz	$+24     	;abs 0x572c
    5716:	f2 f0 bf ff 04 00 	and.b	#-65,	&0x0004	;#0xffbf
    571c:	b0 12 f6 45 	call	#0x45f6	
    5720:	b0 12 ac 46 	call	#0x46ac	
    5724:	f2 d0 80 ff 04 00 	bis.b	#-128,	&0x0004	;#0xff80
    572a:	02 3c       	jmp	$+6      	;abs 0x5730
    572c:	b0 12 06 46 	call	#0x4606	
    5730:	4f 43       	clr.b	r15		
    5732:	b0 12 e4 45 	call	#0x45e4	
    5736:	b0 12 a4 46 	call	#0x46a4	
    573a:	b0 12 9c 46 	call	#0x469c	
    573e:	0b 93       	tst	r11		
    5740:	01 24       	jz	$+4      	;abs 0x5744
    5742:	32 d2       	eint			
    5744:	0f 42       	mov	r2,	r15	
    5746:	32 c2       	dint			
    5748:	03 43       	nop			
    574a:	f2 f0 3f 00 02 00 	and.b	#63,	&0x0002	;#0x003f
    5750:	f2 d0 c0 ff 00 00 	bis.b	#-64,	&0x0000	;#0xffc0
    5756:	3f f2       	and	#8,	r15	;r2 As==11
    5758:	01 24       	jz	$+4      	;abs 0x575c
    575a:	32 d2       	eint			
    575c:	3a 41       	pop	r10		
    575e:	3b 41       	pop	r11		
    5760:	30 41       	ret			

00005762 <CC2420SpiP__Resource__immediateRequest>:
    5762:	0b 12       	push	r11		
    5764:	0a 12       	push	r10		
    5766:	09 12       	push	r9		
    5768:	08 12       	push	r8		
    576a:	48 4f       	mov.b	r15,	r8	
    576c:	0a 42       	mov	r2,	r10	
    576e:	3a f2       	and	#8,	r10	;r2 As==11
    5770:	32 c2       	dint			
    5772:	03 43       	nop			
    5774:	4f 43       	clr.b	r15		
    5776:	b0 12 60 55 	call	#0x5560	
    577a:	09 4f       	mov	r15,	r9	
    577c:	0f 93       	tst	r15		
    577e:	04 24       	jz	$+10     	;abs 0x5788
    5780:	0a 93       	tst	r10		
    5782:	25 24       	jz	$+76     	;abs 0x57ce
    5784:	32 d2       	eint			
    5786:	23 3c       	jmp	$+72     	;abs 0x57ce
    5788:	b0 12 4c 4c 	call	#0x4c4c	
    578c:	4b 4f       	mov.b	r15,	r11	
    578e:	4f 93       	tst.b	r15		
    5790:	10 20       	jnz	$+34     	;abs 0x57b2
    5792:	c2 9f d1 11 	cmp.b	r15,	&0x11d1	
    5796:	13 20       	jnz	$+40     	;abs 0x57be
    5798:	f2 40 03 00 d1 11 	mov.b	#3,	&0x11d1	;#0x0003
    579e:	c2 4f 09 11 	mov.b	r15,	&0x1109	
    57a2:	b0 12 6a 4b 	call	#0x4b6a	
    57a6:	c2 9b 08 11 	cmp.b	r11,	&0x1108	
    57aa:	07 20       	jnz	$+16     	;abs 0x57ba
    57ac:	4f 4b       	mov.b	r11,	r15	
    57ae:	b0 12 16 56 	call	#0x5616	
    57b2:	c2 48 05 11 	mov.b	r8,	&0x1105	
    57b6:	0f 49       	mov	r9,	r15	
    57b8:	06 3c       	jmp	$+14     	;abs 0x57c6
    57ba:	c2 4b d1 11 	mov.b	r11,	&0x11d1	
    57be:	4f 43       	clr.b	r15		
    57c0:	b0 12 6c 4c 	call	#0x4c6c	
    57c4:	1f 43       	mov	#1,	r15	;r3 As==01
    57c6:	0a 93       	tst	r10		
    57c8:	04 24       	jz	$+10     	;abs 0x57d2
    57ca:	32 d2       	eint			
    57cc:	02 3c       	jmp	$+6      	;abs 0x57d2
    57ce:	3f 40 05 00 	mov	#5,	r15	;#0x0005
    57d2:	38 41       	pop	r8		
    57d4:	39 41       	pop	r9		
    57d6:	3a 41       	pop	r10		
    57d8:	3b 41       	pop	r11		
    57da:	30 41       	ret			

000057dc <CC2420ReceiveP__beginReceive>:
    57dc:	a2 43 90 11 	mov	#2,	&0x1190	;r3 As==10
    57e0:	d2 43 d0 11 	mov.b	#1,	&0x11d0	;r3 As==01
    57e4:	e2 92 05 11 	cmp.b	#4,	&0x1105	;r2 As==10
    57e8:	05 24       	jz	$+12     	;abs 0x57f4
    57ea:	6f 42       	mov.b	#4,	r15	;r2 As==10
    57ec:	b0 12 62 57 	call	#0x5762	
    57f0:	0f 93       	tst	r15		
    57f2:	03 20       	jnz	$+8      	;abs 0x57fa
    57f4:	b0 12 3a 4c 	call	#0x4c3a	
    57f8:	30 41       	ret			
    57fa:	6f 42       	mov.b	#4,	r15	;r2 As==10
    57fc:	b0 12 86 55 	call	#0x5586	
    5800:	30 41       	ret			

00005802 <CC2420ReceiveP__waitForNextPacket>:
    5802:	0b 12       	push	r11		
    5804:	0b 42       	mov	r2,	r11	
    5806:	3b f2       	and	#8,	r11	;r2 As==11
    5808:	32 c2       	dint			
    580a:	03 43       	nop			
    580c:	82 93 90 11 	tst	&0x1190	
    5810:	19 24       	jz	$+52     	;abs 0x5844
    5812:	c2 43 d0 11 	mov.b	#0,	&0x11d0	;r3 As==00
    5816:	5f 42 9b 11 	mov.b	&0x119b,r15	
    581a:	4f 93       	tst.b	r15		
    581c:	03 24       	jz	$+8      	;abs 0x5824
    581e:	f2 b2 20 00 	bit.b	#8,	&0x0020	;r2 As==11
    5822:	06 20       	jnz	$+14     	;abs 0x5830
    5824:	5e 42 20 00 	mov.b	&0x0020,r14	
    5828:	5e f3       	and.b	#1,	r14	;r3 As==01
    582a:	08 20       	jnz	$+18     	;abs 0x583c
    582c:	4f 9e       	cmp.b	r14,	r15	
    582e:	03 24       	jz	$+8      	;abs 0x5836
    5830:	7f 53       	add.b	#-1,	r15	;r3 As==11
    5832:	c2 4f 9b 11 	mov.b	r15,	&0x119b	
    5836:	b0 12 dc 57 	call	#0x57dc	
    583a:	06 3c       	jmp	$+14     	;abs 0x5848
    583c:	92 43 90 11 	mov	#1,	&0x1190	;r3 As==01
    5840:	c2 43 9b 11 	mov.b	#0,	&0x119b	;r3 As==00
    5844:	b0 12 b6 54 	call	#0x54b6	
    5848:	0b 93       	tst	r11		
    584a:	01 24       	jz	$+4      	;abs 0x584e
    584c:	32 d2       	eint			
    584e:	3b 41       	pop	r11		
    5850:	30 41       	ret			

00005852 <CC2420ReceiveP__flush>:
    5852:	b0 12 70 48 	call	#0x4870	
    5856:	b0 12 80 4c 	call	#0x4c80	
    585a:	b0 12 18 4b 	call	#0x4b18	
    585e:	7f 42       	mov.b	#8,	r15	;r2 As==11
    5860:	b0 12 c6 4a 	call	#0x4ac6	
    5864:	7f 42       	mov.b	#8,	r15	;r2 As==11
    5866:	b0 12 c6 4a 	call	#0x4ac6	
    586a:	b0 12 80 4c 	call	#0x4c80	
    586e:	b0 12 b6 54 	call	#0x54b6	
    5872:	b0 12 02 58 	call	#0x5802	
    5876:	30 41       	ret			

00005878 <Msp430SpiNoDmaP__0__signalDone>:
    5878:	0b 12       	push	r11		
    587a:	0a 12       	push	r10		
    587c:	09 12       	push	r9		
    587e:	08 12       	push	r8		
    5880:	1a 42 6e 12 	mov	&0x126e,r10	
    5884:	5c 42 1c 12 	mov.b	&0x121c,r12	
    5888:	4c 93       	tst.b	r12		
    588a:	02 24       	jz	$+6      	;abs 0x5890
    588c:	30 40 42 5b 	br	#0x5b42	
    5890:	1e 42 1e 12 	mov	&0x121e,r14	
    5894:	09 4e       	mov	r14,	r9	
    5896:	39 f0 40 00 	and	#64,	r9	;#0x0040
    589a:	02 20       	jnz	$+6      	;abs 0x58a0
    589c:	30 40 de 5a 	br	#0x5ade	
    58a0:	7e f0 bf ff 	and.b	#-65,	r14	;#0xffbf
    58a4:	7e 90 3f 00 	cmp.b	#63,	r14	;#0x003f
    58a8:	02 24       	jz	$+6      	;abs 0x58ae
    58aa:	30 40 42 5b 	br	#0x5b42	
    58ae:	1b 42 28 11 	mov	&0x1128,r11	
    58b2:	2b 82       	sub	#4,	r11	;r2 As==10
    58b4:	6d 4b       	mov.b	@r11,	r13	
    58b6:	c2 4d 92 11 	mov.b	r13,	&0x1192	
    58ba:	1f 42 90 11 	mov	&0x1190,r15	
    58be:	3f 90 05 00 	cmp	#5,	r15	;#0x0005
    58c2:	3e 24       	jz	$+126    	;abs 0x5940
    58c4:	3f 90 06 00 	cmp	#6,	r15	;#0x0006
    58c8:	82 24       	jz	$+262    	;abs 0x59ce
    58ca:	2f 93       	cmp	#2,	r15	;r3 As==10
    58cc:	02 24       	jz	$+6      	;abs 0x58d2
    58ce:	30 40 d0 5a 	br	#0x5ad0	
    58d2:	b2 40 05 00 90 11 	mov	#5,	&0x1190	;#0x0005
    58d8:	5f 42 4e 11 	mov.b	&0x114e,r15	
    58dc:	4c 4d       	mov.b	r13,	r12	
    58de:	4e 4f       	mov.b	r15,	r14	
    58e0:	0c 9e       	cmp	r14,	r12	
    58e2:	2a 34       	jge	$+86     	;abs 0x5938
    58e4:	5e 42 20 00 	mov.b	&0x0020,r14	
    58e8:	7e f2       	and.b	#8,	r14	;r2 As==11
    58ea:	0a 20       	jnz	$+22     	;abs 0x5900
    58ec:	5c 42 20 00 	mov.b	&0x0020,r12	
    58f0:	5c f3       	and.b	#1,	r12	;r3 As==01
    58f2:	4c 9e       	cmp.b	r14,	r12	
    58f4:	05 20       	jnz	$+12     	;abs 0x5900
    58f6:	4e 4d       	mov.b	r13,	r14	
    58f8:	7e e3       	xor.b	#-1,	r14	;r3 As==11
    58fa:	4e 5f       	add.b	r15,	r14	
    58fc:	c2 4e 4e 11 	mov.b	r14,	&0x114e	
    5900:	7d 90 2a 00 	cmp.b	#42,	r13	;#0x002a
    5904:	19 2c       	jc	$+52     	;abs 0x5938
    5906:	4d 93       	tst.b	r13		
    5908:	10 24       	jz	$+34     	;abs 0x592a
    590a:	0e 4b       	mov	r11,	r14	
    590c:	1e 53       	inc	r14		
    590e:	7d 92       	cmp.b	#8,	r13	;r2 As==11
    5910:	03 28       	jnc	$+8      	;abs 0x5918
    5912:	3d 40 07 00 	mov	#7,	r13	;#0x0007
    5916:	04 3c       	jmp	$+10     	;abs 0x5920
    5918:	b2 40 06 00 90 11 	mov	#6,	&0x1190	;#0x0006
    591e:	4d 4d       	mov.b	r13,	r13	
    5920:	0f 43       	clr	r15		
    5922:	b0 12 ac 4b 	call	#0x4bac	
    5926:	30 40 42 5b 	br	#0x5b42	
    592a:	c2 4d d0 11 	mov.b	r13,	&0x11d0	
    592e:	b0 12 80 4c 	call	#0x4c80	
    5932:	b0 12 b6 54 	call	#0x54b6	
    5936:	c9 3c       	jmp	$+404    	;abs 0x5aca
    5938:	b0 12 52 58 	call	#0x5852	
    593c:	30 40 42 5b 	br	#0x5b42	
    5940:	b2 40 06 00 90 11 	mov	#6,	&0x1190	;#0x0006
    5946:	c2 93 d4 11 	tst.b	&0x11d4	
    594a:	39 24       	jz	$+116    	;abs 0x59be
    594c:	c2 93 d4 12 	tst.b	&0x12d4	
    5950:	36 20       	jnz	$+110    	;abs 0x59be
    5952:	19 42 28 11 	mov	&0x1128,r9	
    5956:	39 50 fd ff 	add	#-3,	r9	;#0xfffd
    595a:	0f 49       	mov	r9,	r15	
    595c:	b0 12 3e 45 	call	#0x453e	
    5960:	3f f0 20 00 	and	#32,	r15	;#0x0020
    5964:	2c 24       	jz	$+90     	;abs 0x59be
    5966:	1a 42 28 11 	mov	&0x1128,r10	
    596a:	2a 53       	incd	r10		
    596c:	0f 4a       	mov	r10,	r15	
    596e:	b0 12 3e 45 	call	#0x453e	
    5972:	08 4f       	mov	r15,	r8	
    5974:	b0 12 06 4b 	call	#0x4b06	
    5978:	08 9f       	cmp	r15,	r8	
    597a:	05 24       	jz	$+12     	;abs 0x5986
    597c:	0f 4a       	mov	r10,	r15	
    597e:	b0 12 3e 45 	call	#0x453e	
    5982:	3f 93       	cmp	#-1,	r15	;r3 As==11
    5984:	1c 20       	jnz	$+58     	;abs 0x59be
    5986:	0f 49       	mov	r9,	r15	
    5988:	b0 12 3e 45 	call	#0x453e	
    598c:	3f f0 07 00 	and	#7,	r15	;#0x0007
    5990:	1f 93       	cmp	#1,	r15	;r3 As==01
    5992:	15 20       	jnz	$+44     	;abs 0x59be
    5994:	b0 12 80 4c 	call	#0x4c80	
    5998:	b0 12 18 4b 	call	#0x4b18	
    599c:	7f 40 0a 00 	mov.b	#10,	r15	;#0x000a
    59a0:	b0 12 c6 4a 	call	#0x4ac6	
    59a4:	b0 12 80 4c 	call	#0x4c80	
    59a8:	b0 12 18 4b 	call	#0x4b18	
    59ac:	5e 42 92 11 	mov.b	&0x1192,r14	
    59b0:	7e 50 f9 ff 	add.b	#-7,	r14	;#0xfff9
    59b4:	0f 4b       	mov	r11,	r15	
    59b6:	3f 52       	add	#8,	r15	;r2 As==11
    59b8:	b0 12 ec 4b 	call	#0x4bec	
    59bc:	c2 3c       	jmp	$+390    	;abs 0x5b42
    59be:	5d 42 92 11 	mov.b	&0x1192,r13	
    59c2:	7d 50 f9 ff 	add.b	#-7,	r13	;#0xfff9
    59c6:	4d 4d       	mov.b	r13,	r13	
    59c8:	0e 4b       	mov	r11,	r14	
    59ca:	3e 52       	add	#8,	r14	;r2 As==11
    59cc:	a9 3f       	jmp	$-172    	;abs 0x5920
    59ce:	b0 12 80 4c 	call	#0x4c80	
    59d2:	c2 93 9b 11 	tst.b	&0x119b	
    59d6:	02 20       	jnz	$+6      	;abs 0x59dc
    59d8:	b0 12 b6 54 	call	#0x54b6	
    59dc:	c2 93 9b 11 	tst.b	&0x119b	
    59e0:	03 24       	jz	$+8      	;abs 0x59e8
    59e2:	f2 b2 20 00 	bit.b	#8,	&0x0020	;r2 As==11
    59e6:	0b 20       	jnz	$+24     	;abs 0x59fe
    59e8:	d2 b3 20 00 	bit.b	#1,	&0x0020	;r3 As==01
    59ec:	08 24       	jz	$+18     	;abs 0x59fe
    59ee:	5f 42 32 13 	mov.b	&0x1332,r15	
    59f2:	4f 93       	tst.b	r15		
    59f4:	04 24       	jz	$+10     	;abs 0x59fe
    59f6:	f2 90 0b 00 92 11 	cmp.b	#11,	&0x1192	;#0x000b
    59fc:	05 2c       	jc	$+12     	;abs 0x5a08
    59fe:	1f 42 28 11 	mov	&0x1128,r15	
    5a02:	b0 12 fe 47 	call	#0x47fe	
    5a06:	25 3c       	jmp	$+76     	;abs 0x5a52
    5a08:	5f 93       	cmp.b	#1,	r15	;r3 As==01
    5a0a:	0e 20       	jnz	$+30     	;abs 0x5a28
    5a0c:	5d 42 36 13 	mov.b	&0x1336,r13	
    5a10:	0d 5d       	rla	r13		
    5a12:	0d 5d       	rla	r13		
    5a14:	1e 4d ee 12 	mov	4846(r13),r14	;0x12ee(r13)
    5a18:	1d 4d ec 12 	mov	4844(r13),r13	;0x12ec(r13)
    5a1c:	1f 42 28 11 	mov	&0x1128,r15	
    5a20:	3f 50 2a 00 	add	#42,	r15	;#0x002a
    5a24:	b0 12 4a 45 	call	#0x454a	
    5a28:	5f 42 36 13 	mov.b	&0x1336,r15	
    5a2c:	1f 53       	inc	r15		
    5a2e:	7f f0 07 00 	and.b	#7,	r15	;#0x0007
    5a32:	c2 4f 36 13 	mov.b	r15,	&0x1336	
    5a36:	5f 42 32 13 	mov.b	&0x1332,r15	
    5a3a:	7f 53       	add.b	#-1,	r15	;r3 As==11
    5a3c:	c2 4f 32 13 	mov.b	r15,	&0x1332	
    5a40:	08 24       	jz	$+18     	;abs 0x5a52
    5a42:	1f 42 28 11 	mov	&0x1128,r15	
    5a46:	b0 12 fe 47 	call	#0x47fe	
    5a4a:	c2 43 36 13 	mov.b	#0,	&0x1336	;r3 As==00
    5a4e:	c2 43 32 13 	mov.b	#0,	&0x1332	;r3 As==00
    5a52:	5f 42 92 11 	mov.b	&0x1192,r15	
    5a56:	0f 5b       	add	r11,	r15	
    5a58:	cf 93 00 00 	tst.b	0(r15)		;0x0000(r15)
    5a5c:	36 34       	jge	$+110    	;abs 0x5aca
    5a5e:	0a 93       	tst	r10		
    5a60:	34 24       	jz	$+106    	;abs 0x5aca
    5a62:	0f 4b       	mov	r11,	r15	
    5a64:	1f 53       	inc	r15		
    5a66:	b0 12 3e 45 	call	#0x453e	
    5a6a:	7f f0 07 00 	and.b	#7,	r15	;#0x0007
    5a6e:	1b 42 28 11 	mov	&0x1128,r11	
    5a72:	6f 93       	cmp.b	#2,	r15	;r3 As==10
    5a74:	23 20       	jnz	$+72     	;abs 0x5abc
    5a76:	1f 42 d8 11 	mov	&0x11d8,r15	
    5a7a:	0f 93       	tst	r15		
    5a7c:	26 24       	jz	$+78     	;abs 0x5aca
    5a7e:	b2 90 07 00 20 11 	cmp	#7,	&0x1120	;#0x0007
    5a84:	22 20       	jnz	$+70     	;abs 0x5aca
    5a86:	2b 82       	sub	#4,	r11	;r2 As==10
    5a88:	df 9b 03 00 ff ff 	cmp.b	3(r11),	-1(r15)	;0x0003(r11), 0xffff(r15)
    5a8e:	1d 20       	jnz	$+60     	;abs 0x5aca
    5a90:	b0 12 cc 45 	call	#0x45cc	
    5a94:	1f 42 d8 11 	mov	&0x11d8,r15	
    5a98:	3f 50 24 00 	add	#36,	r15	;#0x0024
    5a9c:	6e 4b       	mov.b	@r11,	r14	
    5a9e:	df 43 04 00 	mov.b	#1,	4(r15)	;r3 As==01, 0x0004(r15)
    5aa2:	0e 5b       	add	r11,	r14	
    5aa4:	df 4e ff ff 00 00 	mov.b	-1(r14),0(r15)	;0xffff(r14), 0x0000(r15)
    5aaa:	6e 4e       	mov.b	@r14,	r14	
    5aac:	7e f0 7f 00 	and.b	#127,	r14	;#0x007f
    5ab0:	cf 4e 01 00 	mov.b	r14,	1(r15)	;0x0001(r15)
    5ab4:	0f 43       	clr	r15		
    5ab6:	b0 12 08 54 	call	#0x5408	
    5aba:	07 3c       	jmp	$+16     	;abs 0x5aca
    5abc:	5f 93       	cmp.b	#1,	r15	;r3 As==01
    5abe:	05 20       	jnz	$+12     	;abs 0x5aca
    5ac0:	7f 50 09 00 	add.b	#9,	r15	;#0x0009
    5ac4:	b0 12 2c 4b 	call	#0x4b2c	
    5ac8:	3c 3c       	jmp	$+122    	;abs 0x5b42
    5aca:	b0 12 02 58 	call	#0x5802	
    5ace:	39 3c       	jmp	$+116    	;abs 0x5b42
    5ad0:	c2 4c d0 11 	mov.b	r12,	&0x11d0	
    5ad4:	b0 12 80 4c 	call	#0x4c80	
    5ad8:	b0 12 b6 54 	call	#0x54b6	
    5adc:	32 3c       	jmp	$+102    	;abs 0x5b42
    5ade:	7e 90 3e 00 	cmp.b	#62,	r14	;#0x003e
    5ae2:	2f 20       	jnz	$+96     	;abs 0x5b42
    5ae4:	b0 12 80 4c 	call	#0x4c80	
    5ae8:	b2 92 20 11 	cmp	#8,	&0x1120	;r2 As==11
    5aec:	0f 20       	jnz	$+32     	;abs 0x5b0c
    5aee:	b0 12 18 4b 	call	#0x4b18	
    5af2:	b0 12 fc 4a 	call	#0x4afc	
    5af6:	b0 12 80 4c 	call	#0x4c80	
    5afa:	b0 12 be 54 	call	#0x54be	
    5afe:	92 43 20 11 	mov	#1,	&0x1120	;r3 As==01
    5b02:	3f 40 03 00 	mov	#3,	r15	;#0x0003
    5b06:	b0 12 32 53 	call	#0x5332	
    5b0a:	1b 3c       	jmp	$+56     	;abs 0x5b42
    5b0c:	c2 93 70 13 	tst.b	&0x1370	
    5b10:	05 20       	jnz	$+12     	;abs 0x5b1c
    5b12:	a2 42 20 11 	mov	#4,	&0x1120	;r2 As==10
    5b16:	b0 12 ca 54 	call	#0x54ca	
    5b1a:	13 3c       	jmp	$+40     	;abs 0x5b42
    5b1c:	b0 12 be 54 	call	#0x54be	
    5b20:	b2 40 03 00 20 11 	mov	#3,	&0x1120	;#0x0003
    5b26:	b0 12 3a 46 	call	#0x463a	
    5b2a:	0c 4f       	mov	r15,	r12	
    5b2c:	3a 40 36 01 	mov	#310,	r10	;#0x0136
    5b30:	b0 12 ee 7e 	call	#0x7eee	
    5b34:	3e 50 0b 00 	add	#11,	r14	;#0x000b
    5b38:	82 4e 4a 11 	mov	r14,	&0x114a	
    5b3c:	0f 49       	mov	r9,	r15	
    5b3e:	b0 12 b4 4d 	call	#0x4db4	
    5b42:	38 41       	pop	r8		
    5b44:	39 41       	pop	r9		
    5b46:	3a 41       	pop	r10		
    5b48:	3b 41       	pop	r11		
    5b4a:	30 41       	ret			

00005b4c <CC2420TransmitP__acquireSpiResource>:
    5b4c:	0b 12       	push	r11		
    5b4e:	7f 40 03 00 	mov.b	#3,	r15	;#0x0003
    5b52:	b0 12 62 57 	call	#0x5762	
    5b56:	0b 4f       	mov	r15,	r11	
    5b58:	0f 93       	tst	r15		
    5b5a:	04 24       	jz	$+10     	;abs 0x5b64
    5b5c:	7f 40 03 00 	mov.b	#3,	r15	;#0x0003
    5b60:	b0 12 86 55 	call	#0x5586	
    5b64:	0f 4b       	mov	r11,	r15	
    5b66:	3b 41       	pop	r11		
    5b68:	30 41       	ret			

00005b6a <CC2420TinyosNetworkP__ActiveSend__send.clone.114>:
    5b6a:	0b 12       	push	r11		
    5b6c:	0a 12       	push	r10		
    5b6e:	09 12       	push	r9		
    5b70:	08 12       	push	r8		
    5b72:	09 4f       	mov	r15,	r9	
    5b74:	0b 42       	mov	r2,	r11	
    5b76:	32 c2       	dint			
    5b78:	03 43       	nop			
    5b7a:	b0 12 2e 48 	call	#0x482e	
    5b7e:	ff 40 3f 00 00 00 	mov.b	#63,	0(r15)	;#0x003f, 0x0000(r15)
    5b84:	3b b2       	bit	#8,	r11	;r2 As==11
    5b86:	01 24       	jz	$+4      	;abs 0x5b8a
    5b88:	32 d2       	eint			
    5b8a:	82 43 3c 13 	mov	#0,	&0x133c	;r3 As==00
    5b8e:	6f 43       	mov.b	#2,	r15	;r3 As==10
    5b90:	b0 12 60 55 	call	#0x5560	
    5b94:	0f 93       	tst	r15		
    5b96:	73 20       	jnz	$+232    	;abs 0x5c7e
    5b98:	5f 42 e2 12 	mov.b	&0x12e2,r15	
    5b9c:	4e 4f       	mov.b	r15,	r14	
    5b9e:	5e 53       	inc.b	r14		
    5ba0:	c2 4e e2 12 	mov.b	r14,	&0x12e2	
    5ba4:	0b 49       	mov	r9,	r11	
    5ba6:	2b 82       	sub	#4,	r11	;r2 As==10
    5ba8:	cb 4f 03 00 	mov.b	r15,	3(r11)	;0x0003(r11)
    5bac:	0a 42       	mov	r2,	r10	
    5bae:	3a f2       	and	#8,	r10	;r2 As==11
    5bb0:	32 c2       	dint			
    5bb2:	03 43       	nop			
    5bb4:	6e 43       	mov.b	#2,	r14	;r3 As==10
    5bb6:	5f 43       	mov.b	#1,	r15	;r3 As==01
    5bb8:	b0 12 a2 4a 	call	#0x4aa2	
    5bbc:	4f 93       	tst.b	r15		
    5bbe:	04 20       	jnz	$+10     	;abs 0x5bc8
    5bc0:	0a 93       	tst	r10		
    5bc2:	58 24       	jz	$+178    	;abs 0x5c74
    5bc4:	32 d2       	eint			
    5bc6:	56 3c       	jmp	$+174    	;abs 0x5c74
    5bc8:	6f 42       	mov.b	#4,	r15	;r2 As==10
    5bca:	b0 12 2a 51 	call	#0x512a	
    5bce:	82 49 2e 12 	mov	r9,	&0x122e	
    5bd2:	0a 93       	tst	r10		
    5bd4:	01 24       	jz	$+4      	;abs 0x5bd8
    5bd6:	32 d2       	eint			
    5bd8:	0a 49       	mov	r9,	r10	
    5bda:	3a 50 24 00 	add	#36,	r10	;#0x0024
    5bde:	08 4b       	mov	r11,	r8	
    5be0:	18 53       	inc	r8		
    5be2:	0f 48       	mov	r8,	r15	
    5be4:	b0 12 3e 45 	call	#0x453e	
    5be8:	0e 4f       	mov	r15,	r14	
    5bea:	3e f0 20 cc 	and	#-13280,r14	;#0xcc20
    5bee:	cb 4e 01 00 	mov.b	r14,	1(r11)	;0x0001(r11)
    5bf2:	8e 10       	swpb	r14		
    5bf4:	cb 4e 02 00 	mov.b	r14,	2(r11)	;0x0002(r11)
    5bf8:	0f 48       	mov	r8,	r15	
    5bfa:	b0 12 3e 45 	call	#0x453e	
    5bfe:	3f d0 41 00 	bis	#65,	r15	;#0x0041
    5c02:	cb 4f 01 00 	mov.b	r15,	1(r11)	;0x0001(r11)
    5c06:	8f 10       	swpb	r15		
    5c08:	cb 4f 02 00 	mov.b	r15,	2(r11)	;0x0002(r11)
    5c0c:	ca 43 04 00 	mov.b	#0,	4(r10)	;r3 As==00, 0x0004(r10)
    5c10:	ca 43 00 00 	mov.b	#0,	0(r10)	;r3 As==00, 0x0000(r10)
    5c14:	ca 43 01 00 	mov.b	#0,	1(r10)	;r3 As==00, 0x0001(r10)
    5c18:	0d 43       	clr	r13		
    5c1a:	3e 40 00 80 	mov	#-32768,r14	;#0x8000
    5c1e:	0f 49       	mov	r9,	r15	
    5c20:	3f 50 2a 00 	add	#42,	r15	;#0x002a
    5c24:	b0 12 4a 45 	call	#0x454a	
    5c28:	d2 43 ca 12 	mov.b	#1,	&0x12ca	;r3 As==01
    5c2c:	1d 42 2e 12 	mov	&0x122e,r13	
    5c30:	0f 42       	mov	r2,	r15	
    5c32:	3f f2       	and	#8,	r15	;r2 As==11
    5c34:	32 c2       	dint			
    5c36:	03 43       	nop			
    5c38:	1e 42 20 11 	mov	&0x1120,r14	
    5c3c:	3e 92       	cmp	#8,	r14	;r2 As==11
    5c3e:	02 24       	jz	$+6      	;abs 0x5c44
    5c40:	1e 93       	cmp	#1,	r14	;r3 As==01
    5c42:	04 24       	jz	$+10     	;abs 0x5c4c
    5c44:	0f 93       	tst	r15		
    5c46:	1f 24       	jz	$+64     	;abs 0x5c86
    5c48:	32 d2       	eint			
    5c4a:	1c 3c       	jmp	$+58     	;abs 0x5c84
    5c4c:	a2 43 20 11 	mov	#2,	&0x1120	;r3 As==10
    5c50:	c2 4e 70 13 	mov.b	r14,	&0x1370	
    5c54:	82 4d d8 11 	mov	r13,	&0x11d8	
    5c58:	c2 43 30 11 	mov.b	#0,	&0x1130	;r3 As==00
    5c5c:	0f 93       	tst	r15		
    5c5e:	01 24       	jz	$+4      	;abs 0x5c62
    5c60:	32 d2       	eint			
    5c62:	b0 12 4c 5b 	call	#0x5b4c	
    5c66:	0b 4f       	mov	r15,	r11	
    5c68:	0f 93       	tst	r15		
    5c6a:	0c 20       	jnz	$+26     	;abs 0x5c84
    5c6c:	b0 12 3c 51 	call	#0x513c	
    5c70:	0f 4b       	mov	r11,	r15	
    5c72:	09 3c       	jmp	$+20     	;abs 0x5c86
    5c74:	6f 43       	mov.b	#2,	r15	;r3 As==10
    5c76:	b0 12 6c 4c 	call	#0x4c6c	
    5c7a:	1f 43       	mov	#1,	r15	;r3 As==01
    5c7c:	04 3c       	jmp	$+10     	;abs 0x5c86
    5c7e:	3f 40 05 00 	mov	#5,	r15	;#0x0005
    5c82:	01 3c       	jmp	$+4      	;abs 0x5c86
    5c84:	0f 43       	clr	r15		
    5c86:	38 41       	pop	r8		
    5c88:	39 41       	pop	r9		
    5c8a:	3a 41       	pop	r10		
    5c8c:	3b 41       	pop	r11		
    5c8e:	30 41       	ret			

00005c90 <CC2420ActiveMessageP__AMSend__send.clone.138>:
    5c90:	0b 12       	push	r11		
    5c92:	0a 12       	push	r10		
    5c94:	09 12       	push	r9		
    5c96:	0a 4e       	mov	r14,	r10	
    5c98:	49 4d       	mov.b	r13,	r9	
    5c9a:	7d 90 1d 00 	cmp.b	#29,	r13	;#0x001d
    5c9e:	53 2c       	jc	$+168    	;abs 0x5d46
    5ca0:	0b 4e       	mov	r14,	r11	
    5ca2:	2b 82       	sub	#4,	r11	;r2 As==10
    5ca4:	cb 4f 0b 00 	mov.b	r15,	11(r11)	;0x000b(r11)
    5ca8:	0f 4e       	mov	r14,	r15	
    5caa:	2f 53       	incd	r15		
    5cac:	ff 43 00 00 	mov.b	#-1,	0(r15)	;r3 As==11, 0x0000(r15)
    5cb0:	ff 43 01 00 	mov.b	#-1,	1(r15)	;r3 As==11, 0x0001(r15)
    5cb4:	0f 42       	mov	r2,	r15	
    5cb6:	32 c2       	dint			
    5cb8:	03 43       	nop			
    5cba:	1e 42 d2 11 	mov	&0x11d2,r14	
    5cbe:	3f f2       	and	#8,	r15	;r2 As==11
    5cc0:	01 24       	jz	$+4      	;abs 0x5cc4
    5cc2:	32 d2       	eint			
    5cc4:	0f 4b       	mov	r11,	r15	
    5cc6:	2f 52       	add	#4,	r15	;r2 As==10
    5cc8:	cf 4e 00 00 	mov.b	r14,	0(r15)	;0x0000(r15)
    5ccc:	8e 10       	swpb	r14		
    5cce:	cf 4e 01 00 	mov.b	r14,	1(r15)	;0x0001(r15)
    5cd2:	b0 12 42 4f 	call	#0x4f42	
    5cd6:	0e 4b       	mov	r11,	r14	
    5cd8:	3e 52       	add	#8,	r14	;r2 As==11
    5cda:	ce 4f 00 00 	mov.b	r15,	0(r14)	;0x0000(r14)
    5cde:	8f 10       	swpb	r15		
    5ce0:	ce 4f 01 00 	mov.b	r15,	1(r14)	;0x0001(r14)
    5ce4:	0f 4b       	mov	r11,	r15	
    5ce6:	1f 53       	inc	r15		
    5ce8:	b0 12 3e 45 	call	#0x453e	
    5cec:	3f d0 40 88 	bis	#-30656,r15	;#0x8840
    5cf0:	cb 4f 01 00 	mov.b	r15,	1(r11)	;0x0001(r11)
    5cf4:	8f 10       	swpb	r15		
    5cf6:	cb 4f 02 00 	mov.b	r15,	2(r11)	;0x0002(r11)
    5cfa:	4f 49       	mov.b	r9,	r15	
    5cfc:	7f 50 0d 00 	add.b	#13,	r15	;#0x000d
    5d00:	cb 4f 00 00 	mov.b	r15,	0(r11)	;0x0000(r11)
    5d04:	c2 93 0d 11 	tst.b	&0x110d	
    5d08:	08 24       	jz	$+18     	;abs 0x5d1a
    5d0a:	c2 43 0d 11 	mov.b	#0,	&0x110d	;r3 As==00
    5d0e:	0f 4a       	mov	r10,	r15	
    5d10:	b0 12 6a 5b 	call	#0x5b6a	
    5d14:	0f 93       	tst	r15		
    5d16:	10 20       	jnz	$+34     	;abs 0x5d38
    5d18:	1a 3c       	jmp	$+54     	;abs 0x5d4e
    5d1a:	c2 49 2c 12 	mov.b	r9,	&0x122c	
    5d1e:	d2 42 0d 11 2d 12 	mov.b	&0x110d,&0x122d	
    5d24:	82 4a 26 11 	mov	r10,	&0x1126	
    5d28:	7f 40 0b 00 	mov.b	#11,	r15	;#0x000b
    5d2c:	b0 12 2c 4b 	call	#0x4b2c	
    5d30:	c2 93 0d 11 	tst.b	&0x110d	
    5d34:	0a 24       	jz	$+22     	;abs 0x5d4a
    5d36:	03 3c       	jmp	$+8      	;abs 0x5d3e
    5d38:	f2 43 0d 11 	mov.b	#-1,	&0x110d	;r3 As==11
    5d3c:	08 3c       	jmp	$+18     	;abs 0x5d4e
    5d3e:	c2 43 e0 11 	mov.b	#0,	&0x11e0	;r3 As==00
    5d42:	0f 43       	clr	r15		
    5d44:	04 3c       	jmp	$+10     	;abs 0x5d4e
    5d46:	2f 43       	mov	#2,	r15	;r3 As==10
    5d48:	02 3c       	jmp	$+6      	;abs 0x5d4e
    5d4a:	3f 40 09 00 	mov	#9,	r15	;#0x0009
    5d4e:	39 41       	pop	r9		
    5d50:	3a 41       	pop	r10		
    5d52:	3b 41       	pop	r11		
    5d54:	30 41       	ret			

00005d56 <VirtualizeTimerC__0__fireTimers>:
    5d56:	0b 12       	push	r11		
    5d58:	0a 12       	push	r10		
    5d5a:	09 12       	push	r9		
    5d5c:	08 12       	push	r8		
    5d5e:	07 12       	push	r7		
    5d60:	06 12       	push	r6		
    5d62:	05 12       	push	r5		
    5d64:	05 4e       	mov	r14,	r5	
    5d66:	06 4f       	mov	r15,	r6	
    5d68:	3c 40 3a 12 	mov	#4666,	r12	;#0x123a
    5d6c:	0b 43       	clr	r11		
    5d6e:	0f 4b       	mov	r11,	r15	
    5d70:	0f 5f       	rla	r15		
    5d72:	0f 5f       	rla	r15		
    5d74:	0f 5b       	add	r11,	r15	
    5d76:	0f 5f       	rla	r15		
    5d78:	3f 50 3a 12 	add	#4666,	r15	;#0x123a
    5d7c:	5f 4f 08 00 	mov.b	8(r15),	r15	;0x0008(r15)
    5d80:	6f b3       	bit.b	#2,	r15	;r3 As==10
    5d82:	cb 24       	jz	$+408    	;abs 0x5f1a
    5d84:	27 4c       	mov	@r12,	r7	
    5d86:	18 4c 02 00 	mov	2(r12),	r8	;0x0002(r12)
    5d8a:	1d 4c 04 00 	mov	4(r12),	r13	;0x0004(r12)
    5d8e:	1e 4c 06 00 	mov	6(r12),	r14	;0x0006(r12)
    5d92:	09 45       	mov	r5,	r9	
    5d94:	0a 46       	mov	r6,	r10	
    5d96:	09 87       	sub	r7,	r9	
    5d98:	0a 78       	subc	r8,	r10	
    5d9a:	0a 9e       	cmp	r14,	r10	
    5d9c:	be 28       	jnc	$+382    	;abs 0x5f1a
    5d9e:	0a 9e       	cmp	r14,	r10	
    5da0:	02 20       	jnz	$+6      	;abs 0x5da6
    5da2:	09 9d       	cmp	r13,	r9	
    5da4:	ba 28       	jnc	$+374    	;abs 0x5f1a
    5da6:	4c 4f       	mov.b	r15,	r12	
    5da8:	5c f3       	and.b	#1,	r12	;r3 As==01
    5daa:	0f 4b       	mov	r11,	r15	
    5dac:	0f 5f       	rla	r15		
    5dae:	4c 93       	tst.b	r12		
    5db0:	07 24       	jz	$+16     	;abs 0x5dc0
    5db2:	0f 5f       	rla	r15		
    5db4:	0f 5b       	add	r11,	r15	
    5db6:	0f 5f       	rla	r15		
    5db8:	ff f0 fd ff 42 12 	and.b	#-3,	4674(r15);#0xfffd, 0x1242(r15)
    5dbe:	0b 3c       	jmp	$+24     	;abs 0x5dd6
    5dc0:	0f 5f       	rla	r15		
    5dc2:	0f 5b       	add	r11,	r15	
    5dc4:	0f 5f       	rla	r15		
    5dc6:	09 47       	mov	r7,	r9	
    5dc8:	0a 48       	mov	r8,	r10	
    5dca:	09 5d       	add	r13,	r9	
    5dcc:	0a 6e       	addc	r14,	r10	
    5dce:	8f 49 3a 12 	mov	r9,	4666(r15);0x123a(r15)
    5dd2:	8f 4a 3c 12 	mov	r10,	4668(r15);0x123c(r15)
    5dd6:	5b 93       	cmp.b	#1,	r11	;r3 As==01
    5dd8:	3e 24       	jz	$+126    	;abs 0x5e56
    5dda:	4b 93       	tst.b	r11		
    5ddc:	04 24       	jz	$+10     	;abs 0x5de6
    5dde:	7b 90 03 00 	cmp.b	#3,	r11	;#0x0003
    5de2:	a1 20       	jnz	$+324    	;abs 0x5f26
    5de4:	80 3c       	jmp	$+258    	;abs 0x5ee6
    5de6:	92 93 10 11 	cmp	#1,	&0x1110	;r3 As==01
    5dea:	1b 20       	jnz	$+56     	;abs 0x5e22
    5dec:	92 53 12 11 	inc	&0x1112	
    5df0:	b0 12 b6 51 	call	#0x51b6	
    5df4:	7d 40 09 00 	mov.b	#9,	r13	;#0x0009
    5df8:	3e 40 e2 11 	mov	#4578,	r14	;#0x11e2
    5dfc:	7f 40 23 00 	mov.b	#35,	r15	;#0x0023
    5e00:	b0 12 90 5c 	call	#0x5c90	
    5e04:	1f 42 12 11 	mov	&0x1112,r15	
    5e08:	1f f3       	and	#1,	r15	;r3 As==01
    5e0a:	07 20       	jnz	$+16     	;abs 0x5e1a
    5e0c:	82 4f 10 11 	mov	r15,	&0x1110	
    5e10:	3d 40 80 38 	mov	#14464,	r13	;#0x3880
    5e14:	1e 43       	mov	#1,	r14	;r3 As==01
    5e16:	5f 43       	mov.b	#1,	r15	;r3 As==01
    5e18:	7d 3c       	jmp	$+252    	;abs 0x5f14
    5e1a:	3d 40 80 38 	mov	#14464,	r13	;#0x3880
    5e1e:	1e 43       	mov	#1,	r14	;r3 As==01
    5e20:	60 3c       	jmp	$+194    	;abs 0x5ee2
    5e22:	b0 12 54 4f 	call	#0x4f54	
    5e26:	0d 4e       	mov	r14,	r13	
    5e28:	0e 4f       	mov	r15,	r14	
    5e2a:	82 4d 36 11 	mov	r13,	&0x1136	
    5e2e:	82 4e 38 11 	mov	r14,	&0x1138	
    5e32:	1f 42 8e 11 	mov	&0x118e,r15	
    5e36:	1f 53       	inc	r15		
    5e38:	b0 12 4a 45 	call	#0x454a	
    5e3c:	7d 40 09 00 	mov.b	#9,	r13	;#0x0009
    5e40:	3e 40 74 12 	mov	#4724,	r14	;#0x1274
    5e44:	7f 40 21 00 	mov.b	#33,	r15	;#0x0021
    5e48:	b0 12 90 5c 	call	#0x5c90	
    5e4c:	b0 12 b6 51 	call	#0x51b6	
    5e50:	b0 12 ca 51 	call	#0x51ca	
    5e54:	68 3c       	jmp	$+210    	;abs 0x5f26
    5e56:	19 42 02 11 	mov	&0x1102,r9	
    5e5a:	19 93       	cmp	#1,	r9	;r3 As==01
    5e5c:	2a 20       	jnz	$+86     	;abs 0x5eb2
    5e5e:	b0 12 de 51 	call	#0x51de	
    5e62:	b2 40 aa 11 44 13 	mov	#4522,	&0x1344	;#0x11aa
    5e68:	b0 12 54 4f 	call	#0x4f54	
    5e6c:	0d 4e       	mov	r14,	r13	
    5e6e:	0e 4f       	mov	r15,	r14	
    5e70:	1f 42 44 13 	mov	&0x1344,r15	
    5e74:	3f 50 05 00 	add	#5,	r15	;#0x0005
    5e78:	b0 12 4a 45 	call	#0x454a	
    5e7c:	b0 12 54 4f 	call	#0x4f54	
    5e80:	0d 4e       	mov	r14,	r13	
    5e82:	0e 4f       	mov	r15,	r14	
    5e84:	1f 42 44 13 	mov	&0x1344,r15	
    5e88:	1f 53       	inc	r15		
    5e8a:	b0 12 4a 45 	call	#0x454a	
    5e8e:	1f 42 44 13 	mov	&0x1344,r15	
    5e92:	df 42 00 11 00 00 	mov.b	&0x1100,0(r15)	;0x0000(r15)
    5e98:	7d 40 09 00 	mov.b	#9,	r13	;#0x0009
    5e9c:	3e 40 a2 11 	mov	#4514,	r14	;#0x11a2
    5ea0:	7f 40 24 00 	mov.b	#36,	r15	;#0x0024
    5ea4:	b0 12 90 5c 	call	#0x5c90	
    5ea8:	3d 40 00 71 	mov	#28928,	r13	;#0x7100
    5eac:	2e 43       	mov	#2,	r14	;r3 As==10
    5eae:	4f 49       	mov.b	r9,	r15	
    5eb0:	31 3c       	jmp	$+100    	;abs 0x5f14
    5eb2:	29 93       	cmp	#2,	r9	;r3 As==10
    5eb4:	38 20       	jnz	$+114    	;abs 0x5f26
    5eb6:	b0 12 ca 51 	call	#0x51ca	
    5eba:	b0 12 54 4f 	call	#0x4f54	
    5ebe:	0d 4e       	mov	r14,	r13	
    5ec0:	0e 4f       	mov	r15,	r14	
    5ec2:	1f 42 ca 11 	mov	&0x11ca,r15	
    5ec6:	1f 53       	inc	r15		
    5ec8:	b0 12 4a 45 	call	#0x454a	
    5ecc:	7d 40 09 00 	mov.b	#9,	r13	;#0x0009
    5ed0:	3e 40 68 11 	mov	#4456,	r14	;#0x1168
    5ed4:	7f 40 26 00 	mov.b	#38,	r15	;#0x0026
    5ed8:	b0 12 90 5c 	call	#0x5c90	
    5edc:	3d 40 00 71 	mov	#28928,	r13	;#0x7100
    5ee0:	2e 43       	mov	#2,	r14	;r3 As==10
    5ee2:	4f 4b       	mov.b	r11,	r15	
    5ee4:	17 3c       	jmp	$+48     	;abs 0x5f14
    5ee6:	b0 12 54 4f 	call	#0x4f54	
    5eea:	0d 4e       	mov	r14,	r13	
    5eec:	0e 4f       	mov	r15,	r14	
    5eee:	1f 42 de 12 	mov	&0x12de,r15	
    5ef2:	1f 53       	inc	r15		
    5ef4:	b0 12 4a 45 	call	#0x454a	
    5ef8:	7d 40 07 00 	mov.b	#7,	r13	;#0x0007
    5efc:	3e 40 46 13 	mov	#4934,	r14	;#0x1346
    5f00:	7f 40 45 00 	mov.b	#69,	r15	;#0x0045
    5f04:	b0 12 90 5c 	call	#0x5c90	
    5f08:	82 43 14 11 	mov	#0,	&0x1114	;r3 As==00
    5f0c:	5d 42 26 12 	mov.b	&0x1226,r13	
    5f10:	0e 43       	clr	r14		
    5f12:	6f 43       	mov.b	#2,	r15	;r3 As==10
    5f14:	b0 12 b0 50 	call	#0x50b0	
    5f18:	06 3c       	jmp	$+14     	;abs 0x5f26
    5f1a:	1b 53       	inc	r11		
    5f1c:	3c 50 0a 00 	add	#10,	r12	;#0x000a
    5f20:	3b 90 05 00 	cmp	#5,	r11	;#0x0005
    5f24:	24 23       	jnz	$-438    	;abs 0x5d6e
    5f26:	5f 43       	mov.b	#1,	r15	;r3 As==01
    5f28:	b0 12 2c 4b 	call	#0x4b2c	
    5f2c:	35 41       	pop	r5		
    5f2e:	36 41       	pop	r6		
    5f30:	37 41       	pop	r7		
    5f32:	38 41       	pop	r8		
    5f34:	39 41       	pop	r9		
    5f36:	3a 41       	pop	r10		
    5f38:	3b 41       	pop	r11		
    5f3a:	30 41       	ret			

00005f3c <Msp430TimerP__1__Event__fired>:
    5f3c:	0b 12       	push	r11		
    5f3e:	0a 12       	push	r10		
    5f40:	09 12       	push	r9		
    5f42:	08 12       	push	r8		
    5f44:	07 12       	push	r7		
    5f46:	7f 92       	cmp.b	#8,	r15	;r2 As==11
    5f48:	02 28       	jnc	$+6      	;abs 0x5f4e
    5f4a:	30 40 38 62 	br	#0x6238	
    5f4e:	4f 4f       	mov.b	r15,	r15	
    5f50:	0f 5f       	rla	r15		
    5f52:	10 4f 56 5f 	br	24406(r15)	;0x5f56(r15)
    5f56:	66 5f       	add.b	@r15,	r6	
    5f58:	9c 5f 48 61 ec 61 	add	24904(r15),25068(r12);0x6148(r15), 0x61ec(r12)
    5f5e:	fc 61 0c 62 	addc.b	@r1+,	25100(r12);0x620c(r12)
    5f62:	1c 62 2c 62 	addc	&0x622c,r12	
    5f66:	1f 42 82 01 	mov	&0x0182,r15	
    5f6a:	8f 10       	swpb	r15		
    5f6c:	4a 4f       	mov.b	r15,	r10	
    5f6e:	5a f3       	and.b	#1,	r10	;r3 As==01
    5f70:	04 24       	jz	$+10     	;abs 0x5f7a
    5f72:	1f 42 92 01 	mov	&0x0192,r15	
    5f76:	30 40 38 62 	br	#0x6238	
    5f7a:	b0 12 36 45 	call	#0x4536	
    5f7e:	82 93 0c 12 	tst	&0x120c	
    5f82:	08 20       	jnz	$+18     	;abs 0x5f94
    5f84:	82 93 0e 12 	tst	&0x120e	
    5f88:	05 20       	jnz	$+12     	;abs 0x5f94
    5f8a:	4f 4a       	mov.b	r10,	r15	
    5f8c:	b0 12 2c 4b 	call	#0x4b2c	
    5f90:	30 40 38 62 	br	#0x6238	
    5f94:	b0 12 bc 4f 	call	#0x4fbc	
    5f98:	30 40 38 62 	br	#0x6238	
    5f9c:	1f 42 84 01 	mov	&0x0184,r15	
    5fa0:	8f 10       	swpb	r15		
    5fa2:	5f f3       	and.b	#1,	r15	;r3 As==01
    5fa4:	02 20       	jnz	$+6      	;abs 0x5faa
    5fa6:	30 40 38 62 	br	#0x6238	
    5faa:	18 42 94 01 	mov	&0x0194,r8	
    5fae:	b0 12 dc 45 	call	#0x45dc	
    5fb2:	b0 12 d4 45 	call	#0x45d4	
    5fb6:	b0 12 92 4c 	call	#0x4c92	
    5fba:	0a 4e       	mov	r14,	r10	
    5fbc:	0b 4f       	mov	r15,	r11	
    5fbe:	0d 4e       	mov	r14,	r13	
    5fc0:	0d 88       	sub	r8,	r13	
    5fc2:	0e 43       	clr	r14		
    5fc4:	0a 8d       	sub	r13,	r10	
    5fc6:	0b 7e       	subc	r14,	r11	
    5fc8:	1f 42 20 11 	mov	&0x1120,r15	
    5fcc:	3f 90 05 00 	cmp	#5,	r15	;#0x0005
    5fd0:	04 24       	jz	$+10     	;abs 0x5fda
    5fd2:	3f 90 06 00 	cmp	#6,	r15	;#0x0006
    5fd6:	6d 20       	jnz	$+220    	;abs 0x60b2
    5fd8:	50 3c       	jmp	$+162    	;abs 0x607a
    5fda:	b2 40 06 00 20 11 	mov	#6,	&0x1120	;#0x0006
    5fe0:	d2 43 c8 11 	mov.b	#1,	&0x11c8	;r3 As==01
    5fe4:	c2 43 22 11 	mov.b	#0,	&0x1122	;r3 As==00
    5fe8:	6f 43       	mov.b	#2,	r15	;r3 As==10
    5fea:	b0 12 82 47 	call	#0x4782	
    5fee:	0d 4a       	mov	r10,	r13	
    5ff0:	0e 4b       	mov	r11,	r14	
    5ff2:	1f 42 d8 11 	mov	&0x11d8,r15	
    5ff6:	3f 50 2a 00 	add	#42,	r15	;#0x002a
    5ffa:	b0 12 4a 45 	call	#0x454a	
    5ffe:	1f 42 d8 11 	mov	&0x11d8,r15	
    6002:	cf 93 29 00 	tst.b	41(r15)	;0x0029(r15)
    6006:	24 24       	jz	$+74     	;abs 0x6050
    6008:	57 4f fc ff 	mov.b	-4(r15),r7	;0xfffc(r15)
    600c:	77 50 f7 ff 	add.b	#-9,	r7	;#0xfff7
    6010:	49 47       	mov.b	r7,	r9	
    6012:	09 5f       	add	r15,	r9	
    6014:	0f 49       	mov	r9,	r15	
    6016:	b0 12 7c 45 	call	#0x457c	
    601a:	0d 4e       	mov	r14,	r13	
    601c:	0e 4f       	mov	r15,	r14	
    601e:	0d 8a       	sub	r10,	r13	
    6020:	0e 7b       	subc	r11,	r14	
    6022:	0f 49       	mov	r9,	r15	
    6024:	b0 12 4a 45 	call	#0x454a	
    6028:	b0 12 18 4b 	call	#0x4b18	
    602c:	6c 42       	mov.b	#4,	r12	;r2 As==10
    602e:	0d 49       	mov	r9,	r13	
    6030:	4e 47       	mov.b	r7,	r14	
    6032:	0f 43       	clr	r15		
    6034:	b0 12 6a 4e 	call	#0x4e6a	
    6038:	b0 12 80 4c 	call	#0x4c80	
    603c:	0f 49       	mov	r9,	r15	
    603e:	b0 12 7c 45 	call	#0x457c	
    6042:	0d 4e       	mov	r14,	r13	
    6044:	0e 4f       	mov	r15,	r14	
    6046:	0d 5a       	add	r10,	r13	
    6048:	0e 6b       	addc	r11,	r14	
    604a:	0f 49       	mov	r9,	r15	
    604c:	b0 12 4a 45 	call	#0x454a	
    6050:	1f 42 d8 11 	mov	&0x11d8,r15	
    6054:	3f 50 fd ff 	add	#-3,	r15	;#0xfffd
    6058:	b0 12 3e 45 	call	#0x453e	
    605c:	3f f0 20 00 	and	#32,	r15	;#0x0020
    6060:	02 24       	jz	$+6      	;abs 0x6066
    6062:	d2 43 54 11 	mov.b	#1,	&0x1154	;r3 As==01
    6066:	b0 12 be 54 	call	#0x54be	
    606a:	b0 12 cc 45 	call	#0x45cc	
    606e:	b0 12 be 45 	call	#0x45be	
    6072:	4f 93       	tst.b	r15		
    6074:	02 24       	jz	$+6      	;abs 0x607a
    6076:	30 40 38 62 	br	#0x6238	
    607a:	c2 43 c8 11 	mov.b	#0,	&0x11c8	;r3 As==00
    607e:	b0 12 d8 47 	call	#0x47d8	
    6082:	1f 42 d8 11 	mov	&0x11d8,r15	
    6086:	3f 50 fd ff 	add	#-3,	r15	;#0xfffd
    608a:	b0 12 3e 45 	call	#0x453e	
    608e:	3f f0 20 00 	and	#32,	r15	;#0x0020
    6092:	09 24       	jz	$+20     	;abs 0x60a6
    6094:	b2 40 07 00 20 11 	mov	#7,	&0x1120	;#0x0007
    609a:	3e 40 00 01 	mov	#256,	r14	;#0x0100
    609e:	0f 43       	clr	r15		
    60a0:	b0 12 b4 4d 	call	#0x4db4	
    60a4:	02 3c       	jmp	$+6      	;abs 0x60aa
    60a6:	b0 12 08 54 	call	#0x5408	
    60aa:	b0 12 be 45 	call	#0x45be	
    60ae:	4f 93       	tst.b	r15		
    60b0:	c3 24       	jz	$+392    	;abs 0x6238
    60b2:	c2 93 22 11 	tst.b	&0x1122	
    60b6:	26 20       	jnz	$+78     	;abs 0x6104
    60b8:	c2 93 c8 11 	tst.b	&0x11c8	
    60bc:	25 20       	jnz	$+76     	;abs 0x6108
    60be:	d2 43 c8 11 	mov.b	#1,	&0x11c8	;r3 As==01
    60c2:	6f 43       	mov.b	#2,	r15	;r3 As==10
    60c4:	b0 12 82 47 	call	#0x4782	
    60c8:	b0 12 be 45 	call	#0x45be	
    60cc:	49 4f       	mov.b	r15,	r9	
    60ce:	5f 42 32 13 	mov.b	&0x1332,r15	
    60d2:	7f 92       	cmp.b	#8,	r15	;r2 As==11
    60d4:	0e 2c       	jc	$+30     	;abs 0x60f2
    60d6:	4e 4f       	mov.b	r15,	r14	
    60d8:	5e 52 36 13 	add.b	&0x1336,r14	
    60dc:	3e f0 07 00 	and	#7,	r14	;#0x0007
    60e0:	0e 5e       	rla	r14		
    60e2:	0e 5e       	rla	r14		
    60e4:	8e 4a ec 12 	mov	r10,	4844(r14);0x12ec(r14)
    60e8:	8e 4b ee 12 	mov	r11,	4846(r14);0x12ee(r14)
    60ec:	5f 53       	inc.b	r15		
    60ee:	c2 4f 32 13 	mov.b	r15,	&0x1332	
    60f2:	d2 43 22 11 	mov.b	#1,	&0x1122	;r3 As==01
    60f6:	82 48 20 12 	mov	r8,	&0x1220	
    60fa:	b0 12 be 45 	call	#0x45be	
    60fe:	4f 93       	tst.b	r15		
    6100:	05 24       	jz	$+12     	;abs 0x610c
    6102:	9a 3c       	jmp	$+310    	;abs 0x6238
    6104:	49 43       	clr.b	r9		
    6106:	02 3c       	jmp	$+6      	;abs 0x610c
    6108:	59 42 22 11 	mov.b	&0x1122,r9	
    610c:	d2 93 c8 11 	cmp.b	#1,	&0x11c8	;r3 As==01
    6110:	93 20       	jnz	$+296    	;abs 0x6238
    6112:	c2 43 c8 11 	mov.b	#0,	&0x11c8	;r3 As==00
    6116:	b0 12 d8 47 	call	#0x47d8	
    611a:	c2 43 22 11 	mov.b	#0,	&0x1122	;r3 As==00
    611e:	49 93       	tst.b	r9		
    6120:	8b 20       	jnz	$+280    	;abs 0x6238
    6122:	18 82 20 12 	sub	&0x1220,r8	
    6126:	38 90 0a 00 	cmp	#10,	r8	;#0x000a
    612a:	86 2c       	jc	$+270    	;abs 0x6238
    612c:	5f 42 32 13 	mov.b	&0x1332,r15	
    6130:	4f 93       	tst.b	r15		
    6132:	03 24       	jz	$+8      	;abs 0x613a
    6134:	7f 53       	add.b	#-1,	r15	;r3 As==11
    6136:	c2 4f 32 13 	mov.b	r15,	&0x1332	
    613a:	1f 42 d8 11 	mov	&0x11d8,r15	
    613e:	0f 93       	tst	r15		
    6140:	7b 24       	jz	$+248    	;abs 0x6238
    6142:	b0 12 fe 47 	call	#0x47fe	
    6146:	78 3c       	jmp	$+242    	;abs 0x6238
    6148:	1f 42 86 01 	mov	&0x0186,r15	
    614c:	8f 10       	swpb	r15		
    614e:	5f f3       	and.b	#1,	r15	;r3 As==01
    6150:	03 24       	jz	$+8      	;abs 0x6158
    6152:	1f 42 96 01 	mov	&0x0196,r15	
    6156:	70 3c       	jmp	$+226    	;abs 0x6238
    6158:	b0 12 cc 45 	call	#0x45cc	
    615c:	82 93 9c 11 	tst	&0x119c	
    6160:	42 20       	jnz	$+134    	;abs 0x61e6
    6162:	82 93 9e 11 	tst	&0x119e	
    6166:	3f 20       	jnz	$+128    	;abs 0x61e6
    6168:	1f 42 20 11 	mov	&0x1120,r15	
    616c:	3f 50 fd ff 	add	#-3,	r15	;#0xfffd
    6170:	3f 90 06 00 	cmp	#6,	r15	;#0x0006
    6174:	2b 2c       	jc	$+88     	;abs 0x61cc
    6176:	0f 5f       	rla	r15		
    6178:	10 4f 7c 61 	br	24956(r15)	;0x617c(r15)
    617c:	88 61 a6 61 	addc	r1,	24998(r8);0x61a6(r8)
    6180:	b8 61 cc 61 	addc	@r1+,	25036(r8);0x61cc(r8)
    6184:	b4 61 a6 61 	addc	@r1+,	24998(r4);0x61a6(r4)
    6188:	f2 b0 10 00 20 00 	bit.b	#16,	&0x0020	;#0x0010
    618e:	08 24       	jz	$+18     	;abs 0x61a0
    6190:	a2 42 20 11 	mov	#4,	&0x1120	;r2 As==10
    6194:	3e 40 07 00 	mov	#7,	r14	;#0x0007
    6198:	0f 43       	clr	r15		
    619a:	b0 12 b4 4d 	call	#0x4db4	
    619e:	16 3c       	jmp	$+46     	;abs 0x61cc
    61a0:	b0 12 ea 4d 	call	#0x4dea	
    61a4:	13 3c       	jmp	$+40     	;abs 0x61cc
    61a6:	b0 12 4c 5b 	call	#0x5b4c	
    61aa:	0f 93       	tst	r15		
    61ac:	0f 20       	jnz	$+32     	;abs 0x61cc
    61ae:	b0 12 ca 54 	call	#0x54ca	
    61b2:	0c 3c       	jmp	$+26     	;abs 0x61cc
    61b4:	0f 43       	clr	r15		
    61b6:	08 3c       	jmp	$+18     	;abs 0x61c8
    61b8:	b0 12 fc 4a 	call	#0x4afc	
    61bc:	b0 12 d8 47 	call	#0x47d8	
    61c0:	b0 12 be 54 	call	#0x54be	
    61c4:	3f 40 07 00 	mov	#7,	r15	;#0x0007
    61c8:	b0 12 08 54 	call	#0x5408	
    61cc:	92 93 1a 11 	cmp	#1,	&0x111a	;r3 As==01
    61d0:	33 20       	jnz	$+104    	;abs 0x6238
    61d2:	a2 43 1a 11 	mov	#2,	&0x111a	;r3 As==10
    61d6:	b0 12 f2 51 	call	#0x51f2	
    61da:	b0 12 06 52 	call	#0x5206	
    61de:	4f 43       	clr.b	r15		
    61e0:	b0 12 86 55 	call	#0x5586	
    61e4:	29 3c       	jmp	$+84     	;abs 0x6238
    61e6:	b0 12 d4 4c 	call	#0x4cd4	
    61ea:	26 3c       	jmp	$+78     	;abs 0x6238
    61ec:	1f 42 88 01 	mov	&0x0188,r15	
    61f0:	8f 10       	swpb	r15		
    61f2:	5f f3       	and.b	#1,	r15	;r3 As==01
    61f4:	21 24       	jz	$+68     	;abs 0x6238
    61f6:	1f 42 98 01 	mov	&0x0198,r15	
    61fa:	1e 3c       	jmp	$+62     	;abs 0x6238
    61fc:	1f 42 8a 01 	mov	&0x018a,r15	
    6200:	8f 10       	swpb	r15		
    6202:	5f f3       	and.b	#1,	r15	;r3 As==01
    6204:	19 24       	jz	$+52     	;abs 0x6238
    6206:	1f 42 9a 01 	mov	&0x019a,r15	
    620a:	16 3c       	jmp	$+46     	;abs 0x6238
    620c:	1f 42 8c 01 	mov	&0x018c,r15	
    6210:	8f 10       	swpb	r15		
    6212:	5f f3       	and.b	#1,	r15	;r3 As==01
    6214:	11 24       	jz	$+36     	;abs 0x6238
    6216:	1f 42 9c 01 	mov	&0x019c,r15	
    621a:	0e 3c       	jmp	$+30     	;abs 0x6238
    621c:	1f 42 8e 01 	mov	&0x018e,r15	
    6220:	8f 10       	swpb	r15		
    6222:	5f f3       	and.b	#1,	r15	;r3 As==01
    6224:	09 24       	jz	$+20     	;abs 0x6238
    6226:	1f 42 9e 01 	mov	&0x019e,r15	
    622a:	06 3c       	jmp	$+14     	;abs 0x6238
    622c:	92 53 08 12 	inc	&0x1208	
    6230:	92 53 34 12 	inc	&0x1234	
    6234:	82 63 36 12 	adc	&0x1236	
    6238:	37 41       	pop	r7		
    623a:	38 41       	pop	r8		
    623c:	39 41       	pop	r9		
    623e:	3a 41       	pop	r10		
    6240:	3b 41       	pop	r11		
    6242:	30 41       	ret			

00006244 <SchedulerBasicP__TaskBasic__runTask>:
    6244:	0b 12       	push	r11		
    6246:	0a 12       	push	r10		
    6248:	09 12       	push	r9		
    624a:	08 12       	push	r8		
    624c:	07 12       	push	r7		
    624e:	06 12       	push	r6		
    6250:	05 12       	push	r5		
    6252:	04 12       	push	r4		
    6254:	31 50 ec ff 	add	#-20,	r1	;#0xffec
    6258:	7f 90 0d 00 	cmp.b	#13,	r15	;#0x000d
    625c:	02 28       	jnc	$+6      	;abs 0x6262
    625e:	30 40 fa 6b 	br	#0x6bfa	
    6262:	4f 4f       	mov.b	r15,	r15	
    6264:	0f 5f       	rla	r15		
    6266:	10 4f 6a 62 	br	25194(r15)	;0x626a(r15)
    626a:	84 62 bc 62 	addc	r2,	25276(r4);0x62bc(r4)
    626e:	60 63       	addc.b	#2,	r0	;r3 As==10
    6270:	f6 63 00 64 	addc.b	#-1,	25600(r6);r3 As==11, 0x6400(r6)
    6274:	b4 64 de 64 	addc	@r4+,	25822(r4);0x64de(r4)
    6278:	ea 64 70 66 	addc.b	@r4,	26224(r10);0x6670(r10)
    627c:	8a 66 c2 66 	addc	r6,	26306(r10);0x66c2(r10)
    6280:	90 6b c4 6b c2 93 	addc	27588(r11),0x93c2	;0x6bc4(r11), PC rel. 0xff648
    6286:	98 11 16 20 	sxt	8214(r8)	;0x2016(r8)
    628a:	1c 42 e8 12 	mov	&0x12e8,r12	
    628e:	1d 42 ea 12 	mov	&0x12ea,r13	
    6292:	0a 42       	mov	r2,	r10	
    6294:	32 c2       	dint			
    6296:	03 43       	nop			
    6298:	1e 42 0c 12 	mov	&0x120c,r14	
    629c:	1f 42 0e 12 	mov	&0x120e,r15	
    62a0:	1e 52 16 12 	add	&0x1216,r14	
    62a4:	1f 62 18 12 	addc	&0x1218,r15	
    62a8:	3a f2       	and	#8,	r10	;r2 As==11
    62aa:	01 24       	jz	$+4      	;abs 0x62ae
    62ac:	32 d2       	eint			
    62ae:	43 12       	push.b	#0		;r3 As==00
    62b0:	b0 12 f6 50 	call	#0x50f6	
    62b4:	21 53       	incd	r1		
    62b6:	b0 12 54 4f 	call	#0x4f54	
    62ba:	48 3c       	jmp	$+146    	;abs 0x634c
    62bc:	b0 12 54 4f 	call	#0x4f54	
    62c0:	81 4e 10 00 	mov	r14,	16(r1)	;0x0010(r1)
    62c4:	81 4f 12 00 	mov	r15,	18(r1)	;0x0012(r1)
    62c8:	b0 12 36 45 	call	#0x4536	
    62cc:	36 40 3a 12 	mov	#4666,	r6	;#0x123a
    62d0:	45 43       	clr.b	r5		
    62d2:	3c 43       	mov	#-1,	r12	;r3 As==11
    62d4:	3d 40 ff 7f 	mov	#32767,	r13	;#0x7fff
    62d8:	07 43       	clr	r7		
    62da:	0b 4c       	mov	r12,	r11	
    62dc:	0c 4d       	mov	r13,	r12	
    62de:	4a 45       	mov.b	r5,	r10	
    62e0:	1e 41 10 00 	mov	16(r1),	r14	;0x0010(r1)
    62e4:	1f 41 12 00 	mov	18(r1),	r15	;0x0012(r1)
    62e8:	04 4e       	mov	r14,	r4	
    62ea:	05 4f       	mov	r15,	r5	
    62ec:	0f 47       	mov	r7,	r15	
    62ee:	0f 5f       	rla	r15		
    62f0:	0f 5f       	rla	r15		
    62f2:	0f 57       	add	r7,	r15	
    62f4:	0f 5f       	rla	r15		
    62f6:	ef b3 42 12 	bit.b	#2,	4674(r15);r3 As==10, 0x1242(r15)
    62fa:	14 24       	jz	$+42     	;abs 0x6324
    62fc:	08 44       	mov	r4,	r8	
    62fe:	09 45       	mov	r5,	r9	
    6300:	28 86       	sub	@r6,	r8	
    6302:	19 76 02 00 	subc	2(r6),	r9	;0x0002(r6)
    6306:	1d 46 04 00 	mov	4(r6),	r13	;0x0004(r6)
    630a:	1e 46 06 00 	mov	6(r6),	r14	;0x0006(r6)
    630e:	0d 88       	sub	r8,	r13	
    6310:	0e 79       	subc	r9,	r14	
    6312:	0e 9c       	cmp	r12,	r14	
    6314:	04 38       	jl	$+10     	;abs 0x631e
    6316:	0e 9c       	cmp	r12,	r14	
    6318:	05 20       	jnz	$+12     	;abs 0x6324
    631a:	0d 9b       	cmp	r11,	r13	
    631c:	03 2c       	jc	$+8      	;abs 0x6324
    631e:	0b 4d       	mov	r13,	r11	
    6320:	0c 4e       	mov	r14,	r12	
    6322:	5a 43       	mov.b	#1,	r10	;r3 As==01
    6324:	17 53       	inc	r7		
    6326:	36 50 0a 00 	add	#10,	r6	;#0x000a
    632a:	37 90 05 00 	cmp	#5,	r7	;#0x0005
    632e:	de 23       	jnz	$-66     	;abs 0x62ec
    6330:	0e 44       	mov	r4,	r14	
    6332:	0f 45       	mov	r5,	r15	
    6334:	0d 4c       	mov	r12,	r13	
    6336:	0c 4b       	mov	r11,	r12	
    6338:	4a 93       	tst.b	r10		
    633a:	02 20       	jnz	$+6      	;abs 0x6340
    633c:	30 40 fa 6b 	br	#0x6bfa	
    6340:	1d 93       	cmp	#1,	r13	;r3 As==01
    6342:	08 34       	jge	$+18     	;abs 0x6354
    6344:	0d 93       	tst	r13		
    6346:	02 20       	jnz	$+6      	;abs 0x634c
    6348:	0c 93       	tst	r12		
    634a:	04 20       	jnz	$+10     	;abs 0x6354
    634c:	b0 12 56 5d 	call	#0x5d56	
    6350:	30 40 fa 6b 	br	#0x6bfa	
    6354:	53 12       	push.b	#1		;r3 As==01
    6356:	b0 12 f6 50 	call	#0x50f6	
    635a:	21 53       	incd	r1		
    635c:	30 40 fa 6b 	br	#0x6bfa	
    6360:	0a 42       	mov	r2,	r10	
    6362:	32 c2       	dint			
    6364:	03 43       	nop			
    6366:	b0 12 d8 47 	call	#0x47d8	
    636a:	92 43 20 11 	mov	#1,	&0x1120	;r3 As==01
    636e:	c2 43 22 11 	mov.b	#0,	&0x1122	;r3 As==00
    6372:	c2 43 54 11 	mov.b	#0,	&0x1154	;r3 As==00
    6376:	c2 43 99 11 	mov.b	#0,	&0x1199	;r3 As==00
    637a:	3a b2       	bit	#8,	r10	;r2 As==11
    637c:	01 24       	jz	$+4      	;abs 0x6380
    637e:	32 d2       	eint			
    6380:	0a 42       	mov	r2,	r10	
    6382:	32 c2       	dint			
    6384:	03 43       	nop			
    6386:	b0 12 70 48 	call	#0x4870	
    638a:	92 43 90 11 	mov	#1,	&0x1190	;r3 As==01
    638e:	c2 43 d0 11 	mov.b	#0,	&0x11d0	;r3 As==00
    6392:	f2 f0 fe ff 25 00 	and.b	#-2,	&0x0025	;#0xfffe
    6398:	b0 12 f4 46 	call	#0x46f4	
    639c:	d2 d3 24 00 	bis.b	#1,	&0x0024	;r3 As==01
    63a0:	d2 d3 25 00 	bis.b	#1,	&0x0025	;r3 As==01
    63a4:	3a b2       	bit	#8,	r10	;r2 As==11
    63a6:	01 24       	jz	$+4      	;abs 0x63aa
    63a8:	32 d2       	eint			
    63aa:	0a 42       	mov	r2,	r10	
    63ac:	3a f2       	and	#8,	r10	;r2 As==11
    63ae:	32 c2       	dint			
    63b0:	03 43       	nop			
    63b2:	a2 92 1a 11 	cmp	#4,	&0x111a	;r2 As==10
    63b6:	04 20       	jnz	$+10     	;abs 0x63c0
    63b8:	7f 40 03 00 	mov.b	#3,	r15	;#0x0003
    63bc:	b0 12 c6 4a 	call	#0x4ac6	
    63c0:	0a 93       	tst	r10		
    63c2:	01 24       	jz	$+4      	;abs 0x63c6
    63c4:	32 d2       	eint			
    63c6:	0a 42       	mov	r2,	r10	
    63c8:	32 c2       	dint			
    63ca:	03 43       	nop			
    63cc:	b0 12 80 4c 	call	#0x4c80	
    63d0:	4f 43       	clr.b	r15		
    63d2:	b0 12 22 54 	call	#0x5422	
    63d6:	3a b2       	bit	#8,	r10	;r2 As==11
    63d8:	01 24       	jz	$+4      	;abs 0x63dc
    63da:	32 d2       	eint			
    63dc:	6f 43       	mov.b	#2,	r15	;r3 As==10
    63de:	b0 12 2a 51 	call	#0x512a	
    63e2:	3d 40 00 db 	mov	#-9472,	r13	;#0xdb00
    63e6:	3e 40 1a 00 	mov	#26,	r14	;#0x001a
    63ea:	7f 40 03 00 	mov.b	#3,	r15	;#0x0003
    63ee:	b0 12 b0 50 	call	#0x50b0	
    63f2:	30 40 fa 6b 	br	#0x6bfa	
    63f6:	4f 43       	clr.b	r15		
    63f8:	b0 12 2a 51 	call	#0x512a	
    63fc:	30 40 fa 6b 	br	#0x6bfa	
    6400:	0f 42       	mov	r2,	r15	
    6402:	32 c2       	dint			
    6404:	03 43       	nop			
    6406:	3f f2       	and	#8,	r15	;r2 As==11
    6408:	01 24       	jz	$+4      	;abs 0x640c
    640a:	32 d2       	eint			
    640c:	7e 40 03 00 	mov.b	#3,	r14	;#0x0003
    6410:	5f 43       	mov.b	#1,	r15	;r3 As==01
    6412:	b0 12 a2 4a 	call	#0x4aa2	
    6416:	4f 93       	tst.b	r15		
    6418:	3a 24       	jz	$+118    	;abs 0x648e
    641a:	0a 42       	mov	r2,	r10	
    641c:	32 c2       	dint			
    641e:	03 43       	nop			
    6420:	82 43 20 11 	mov	#0,	&0x1120	;r3 As==00
    6424:	b0 12 cc 45 	call	#0x45cc	
    6428:	b0 12 fc 46 	call	#0x46fc	
    642c:	f2 f0 fd ff 1f 00 	and.b	#-3,	&0x001f	;#0xfffd
    6432:	7f 40 03 00 	mov.b	#3,	r15	;#0x0003
    6436:	b0 12 22 54 	call	#0x5422	
    643a:	b0 12 80 4c 	call	#0x4c80	
    643e:	3a b2       	bit	#8,	r10	;r2 As==11
    6440:	01 24       	jz	$+4      	;abs 0x6444
    6442:	32 d2       	eint			
    6444:	0a 42       	mov	r2,	r10	
    6446:	32 c2       	dint			
    6448:	03 43       	nop			
    644a:	82 43 90 11 	mov	#0,	&0x1190	;r3 As==00
    644e:	b0 12 70 48 	call	#0x4870	
    6452:	b0 12 80 4c 	call	#0x4c80	
    6456:	f2 f0 fe ff 25 00 	and.b	#-2,	&0x0025	;#0xfffe
    645c:	b0 12 f4 46 	call	#0x46f4	
    6460:	3a b2       	bit	#8,	r10	;r2 As==11
    6462:	01 24       	jz	$+4      	;abs 0x6466
    6464:	32 d2       	eint			
    6466:	82 43 1a 11 	mov	#0,	&0x111a	;r3 As==00
    646a:	b0 12 f2 51 	call	#0x51f2	
    646e:	0f 42       	mov	r2,	r15	
    6470:	32 c2       	dint			
    6472:	03 43       	nop			
    6474:	f2 f0 df ff 1d 00 	and.b	#-33,	&0x001d	;#0xffdf
    647a:	3f f2       	and	#8,	r15	;r2 As==11
    647c:	01 24       	jz	$+4      	;abs 0x6480
    647e:	32 d2       	eint			
    6480:	b0 12 06 52 	call	#0x5206	
    6484:	7f 40 03 00 	mov.b	#3,	r15	;#0x0003
    6488:	b0 12 2c 4b 	call	#0x4b2c	
    648c:	03 3c       	jmp	$+8      	;abs 0x6494
    648e:	6f 43       	mov.b	#2,	r15	;r3 As==10
    6490:	b0 12 2a 51 	call	#0x512a	
    6494:	1a 42 2e 12 	mov	&0x122e,r10	
    6498:	6f 43       	mov.b	#2,	r15	;r3 As==10
    649a:	b0 12 6c 4c 	call	#0x4c6c	
    649e:	82 93 3c 13 	tst	&0x133c	
    64a2:	02 24       	jz	$+6      	;abs 0x64a8
    64a4:	30 40 fa 6b 	br	#0x6bfa	
    64a8:	f2 43 0d 11 	mov.b	#-1,	&0x110d	;r3 As==11
    64ac:	5f 4a 07 00 	mov.b	7(r10),	r15	;0x0007(r10)
    64b0:	30 40 b8 6b 	br	#0x6bb8	
    64b4:	0a 42       	mov	r2,	r10	
    64b6:	3a f2       	and	#8,	r10	;r2 As==11
    64b8:	32 c2       	dint			
    64ba:	03 43       	nop			
    64bc:	c2 93 6e 13 	tst.b	&0x136e	
    64c0:	60 20       	jnz	$+194    	;abs 0x6582
    64c2:	d2 43 6e 13 	mov.b	#1,	&0x136e	;r3 As==01
    64c6:	a2 92 1a 11 	cmp	#4,	&0x111a	;r2 As==10
    64ca:	04 20       	jnz	$+10     	;abs 0x64d4
    64cc:	5f 43       	mov.b	#1,	r15	;r3 As==01
    64ce:	b0 12 86 55 	call	#0x5586	
    64d2:	57 3c       	jmp	$+176    	;abs 0x6582
    64d4:	7f 40 06 00 	mov.b	#6,	r15	;#0x0006
    64d8:	b0 12 2c 4b 	call	#0x4b2c	
    64dc:	52 3c       	jmp	$+166    	;abs 0x6582
    64de:	0f 42       	mov	r2,	r15	
    64e0:	32 c2       	dint			
    64e2:	03 43       	nop			
    64e4:	c2 43 6e 13 	mov.b	#0,	&0x136e	;r3 As==00
    64e8:	c9 3c       	jmp	$+404    	;abs 0x667c
    64ea:	0e 42       	mov	r2,	r14	
    64ec:	32 c2       	dint			
    64ee:	03 43       	nop			
    64f0:	5f 42 05 11 	mov.b	&0x1105,r15	
    64f4:	3e f2       	and	#8,	r14	;r2 As==11
    64f6:	01 24       	jz	$+4      	;abs 0x64fa
    64f8:	32 d2       	eint			
    64fa:	7f 90 05 00 	cmp.b	#5,	r15	;#0x0005
    64fe:	02 28       	jnc	$+6      	;abs 0x6504
    6500:	30 40 fa 6b 	br	#0x6bfa	
    6504:	4f 4f       	mov.b	r15,	r15	
    6506:	0f 5f       	rla	r15		
    6508:	10 4f 0c 65 	br	25868(r15)	;0x650c(r15)
    650c:	16 65 8c 65 	addc	25996(r5),r6	;0x658c(r5)
    6510:	c4 65 08 66 	addc.b	r5,	26120(r4);0x6608(r4)
    6514:	68 66       	addc.b	@r6,	r8	
    6516:	b0 12 18 4b 	call	#0x4b18	
    651a:	0a 42       	mov	r2,	r10	
    651c:	3a f2       	and	#8,	r10	;r2 As==11
    651e:	32 c2       	dint			
    6520:	03 43       	nop			
    6522:	a2 93 1a 11 	cmp	#2,	&0x111a	;r3 As==10
    6526:	2d 20       	jnz	$+92     	;abs 0x6582
    6528:	b2 40 03 00 1a 11 	mov	#3,	&0x111a	;#0x0003
    652e:	3e 40 18 00 	mov	#24,	r14	;#0x0018
    6532:	7f 40 1d 00 	mov.b	#29,	r15	;#0x001d
    6536:	b0 12 20 4e 	call	#0x4e20	
    653a:	f2 f0 ef ff 25 00 	and.b	#-17,	&0x0025	;#0xffef
    6540:	b0 12 ec 46 	call	#0x46ec	
    6544:	f2 f0 ef ff 24 00 	and.b	#-17,	&0x0024	;#0xffef
    654a:	f2 d0 10 00 25 00 	bis.b	#16,	&0x0025	;#0x0010
    6550:	5f 43       	mov.b	#1,	r15	;r3 As==01
    6552:	b0 12 c6 4a 	call	#0x4ac6	
    6556:	3e 40 7f 02 	mov	#639,	r14	;#0x027f
    655a:	7f 40 1c 00 	mov.b	#28,	r15	;#0x001c
    655e:	b0 12 20 4e 	call	#0x4e20	
    6562:	b0 12 1a 52 	call	#0x521a	
    6566:	b0 12 48 52 	call	#0x5248	
    656a:	3e 40 56 2a 	mov	#10838,	r14	;#0x2a56
    656e:	7f 40 17 00 	mov.b	#23,	r15	;#0x0017
    6572:	b0 12 20 4e 	call	#0x4e20	
    6576:	3e 40 ff 80 	mov	#-32513,r14	;#0x80ff
    657a:	7f 40 15 00 	mov.b	#21,	r15	;#0x0015
    657e:	b0 12 20 4e 	call	#0x4e20	
    6582:	0a 93       	tst	r10		
    6584:	02 20       	jnz	$+6      	;abs 0x658a
    6586:	30 40 fa 6b 	br	#0x6bfa	
    658a:	7c 3c       	jmp	$+250    	;abs 0x6684
    658c:	b0 12 18 4b 	call	#0x4b18	
    6590:	7f 40 06 00 	mov.b	#6,	r15	;#0x0006
    6594:	b0 12 c6 4a 	call	#0x4ac6	
    6598:	b0 12 1a 52 	call	#0x521a	
    659c:	b0 12 48 52 	call	#0x5248	
    65a0:	b0 12 ea 4e 	call	#0x4eea	
    65a4:	b0 12 80 4c 	call	#0x4c80	
    65a8:	b0 12 18 4b 	call	#0x4b18	
    65ac:	7f 40 03 00 	mov.b	#3,	r15	;#0x0003
    65b0:	b0 12 c6 4a 	call	#0x4ac6	
    65b4:	b0 12 80 4c 	call	#0x4c80	
    65b8:	5f 43       	mov.b	#1,	r15	;r3 As==01
    65ba:	b0 12 22 54 	call	#0x5422	
    65be:	7f 40 06 00 	mov.b	#6,	r15	;#0x0006
    65c2:	7b 3c       	jmp	$+248    	;abs 0x66ba
    65c4:	b0 12 18 4b 	call	#0x4b18	
    65c8:	0a 42       	mov	r2,	r10	
    65ca:	3a f2       	and	#8,	r10	;r2 As==11
    65cc:	32 c2       	dint			
    65ce:	03 43       	nop			
    65d0:	b0 12 bc 4a 	call	#0x4abc	
    65d4:	4f 93       	tst.b	r15		
    65d6:	04 24       	jz	$+10     	;abs 0x65e0
    65d8:	0a 93       	tst	r10		
    65da:	0f 24       	jz	$+32     	;abs 0x65fa
    65dc:	32 d2       	eint			
    65de:	0d 3c       	jmp	$+28     	;abs 0x65fa
    65e0:	0a 93       	tst	r10		
    65e2:	01 24       	jz	$+4      	;abs 0x65e6
    65e4:	32 d2       	eint			
    65e6:	7f 40 53 00 	mov.b	#83,	r15	;#0x0053
    65ea:	b0 12 d2 46 	call	#0x46d2	
    65ee:	4f 43       	clr.b	r15		
    65f0:	b0 12 d2 46 	call	#0x46d2	
    65f4:	4f 43       	clr.b	r15		
    65f6:	b0 12 d2 46 	call	#0x46d2	
    65fa:	b0 12 80 4c 	call	#0x4c80	
    65fe:	6f 43       	mov.b	#2,	r15	;r3 As==10
    6600:	b0 12 22 54 	call	#0x5422	
    6604:	30 40 fa 6b 	br	#0x6bfa	
    6608:	0e 42       	mov	r2,	r14	
    660a:	32 c2       	dint			
    660c:	03 43       	nop			
    660e:	5f 42 20 11 	mov.b	&0x1120,r15	
    6612:	3e f2       	and	#8,	r14	;r2 As==11
    6614:	01 24       	jz	$+4      	;abs 0x6618
    6616:	32 d2       	eint			
    6618:	6f 92       	cmp.b	#4,	r15	;r2 As==10
    661a:	08 24       	jz	$+18     	;abs 0x662c
    661c:	7f 92       	cmp.b	#8,	r15	;r2 As==11
    661e:	0a 24       	jz	$+22     	;abs 0x6634
    6620:	6f 93       	cmp.b	#2,	r15	;r3 As==10
    6622:	1e 20       	jnz	$+62     	;abs 0x6660
    6624:	b0 12 3c 51 	call	#0x513c	
    6628:	30 40 fa 6b 	br	#0x6bfa	
    662c:	b0 12 ca 54 	call	#0x54ca	
    6630:	30 40 fa 6b 	br	#0x6bfa	
    6634:	b0 12 18 4b 	call	#0x4b18	
    6638:	b0 12 fc 4a 	call	#0x4afc	
    663c:	b0 12 80 4c 	call	#0x4c80	
    6640:	b0 12 be 54 	call	#0x54be	
    6644:	0f 42       	mov	r2,	r15	
    6646:	32 c2       	dint			
    6648:	03 43       	nop			
    664a:	92 43 20 11 	mov	#1,	&0x1120	;r3 As==01
    664e:	3f f2       	and	#8,	r15	;r2 As==11
    6650:	01 24       	jz	$+4      	;abs 0x6654
    6652:	32 d2       	eint			
    6654:	3f 40 03 00 	mov	#3,	r15	;#0x0003
    6658:	b0 12 32 53 	call	#0x5332	
    665c:	30 40 fa 6b 	br	#0x6bfa	
    6660:	b0 12 be 54 	call	#0x54be	
    6664:	30 40 fa 6b 	br	#0x6bfa	
    6668:	b0 12 3a 4c 	call	#0x4c3a	
    666c:	30 40 fa 6b 	br	#0x6bfa	
    6670:	0a 42       	mov	r2,	r10	
    6672:	32 c2       	dint			
    6674:	03 43       	nop			
    6676:	b0 12 78 58 	call	#0x5878	
    667a:	0f 4a       	mov	r10,	r15	
    667c:	3f f2       	and	#8,	r15	;r2 As==11
    667e:	02 20       	jnz	$+6      	;abs 0x6684
    6680:	30 40 fa 6b 	br	#0x6bfa	
    6684:	32 d2       	eint			
    6686:	30 40 fa 6b 	br	#0x6bfa	
    668a:	0f 42       	mov	r2,	r15	
    668c:	32 c2       	dint			
    668e:	03 43       	nop			
    6690:	d2 42 09 11 08 11 	mov.b	&0x1109,&0x1108	
    6696:	f2 43 09 11 	mov.b	#-1,	&0x1109	;r3 As==11
    669a:	e2 42 d1 11 	mov.b	#4,	&0x11d1	;r2 As==10
    669e:	3f f2       	and	#8,	r15	;r2 As==11
    66a0:	01 24       	jz	$+4      	;abs 0x66a4
    66a2:	32 d2       	eint			
    66a4:	5f 42 08 11 	mov.b	&0x1108,r15	
    66a8:	b0 12 16 56 	call	#0x5616	
    66ac:	c2 93 08 11 	tst.b	&0x1108	
    66b0:	02 24       	jz	$+6      	;abs 0x66b6
    66b2:	30 40 fa 6b 	br	#0x6bfa	
    66b6:	7f 40 07 00 	mov.b	#7,	r15	;#0x0007
    66ba:	b0 12 2c 4b 	call	#0x4b2c	
    66be:	30 40 fa 6b 	br	#0x6bfa	
    66c2:	1d 42 28 11 	mov	&0x1128,r13	
    66c6:	0e 4d       	mov	r13,	r14	
    66c8:	3e 50 24 00 	add	#36,	r14	;#0x0024
    66cc:	2d 82       	sub	#4,	r13	;r2 As==10
    66ce:	6a 4d       	mov.b	@r13,	r10	
    66d0:	4f 4a       	mov.b	r10,	r15	
    66d2:	0f 5d       	add	r13,	r15	
    66d4:	6d 4f       	mov.b	@r15,	r13	
    66d6:	4d 5d       	rla.b	r13		
    66d8:	4d 43       	clr.b	r13		
    66da:	4d 6d       	rlc.b	r13		
    66dc:	ce 4d 03 00 	mov.b	r13,	3(r14)	;0x0003(r14)
    66e0:	6d 4f       	mov.b	@r15,	r13	
    66e2:	7d f0 7f 00 	and.b	#127,	r13	;#0x007f
    66e6:	ce 4d 01 00 	mov.b	r13,	1(r14)	;0x0001(r14)
    66ea:	de 4f ff ff 00 00 	mov.b	-1(r15),0(r14)	;0xffff(r15), 0x0000(r14)
    66f0:	18 42 28 11 	mov	&0x1128,r8	
    66f4:	28 82       	sub	#4,	r8	;r2 As==10
    66f6:	1f 42 28 11 	mov	&0x1128,r15	
    66fa:	3f 50 fd ff 	add	#-3,	r15	;#0xfffd
    66fe:	b0 12 3e 45 	call	#0x453e	
    6702:	0e 4f       	mov	r15,	r14	
    6704:	0d 42       	mov	r2,	r13	
    6706:	32 c2       	dint			
    6708:	03 43       	nop			
    670a:	5f 42 9a 11 	mov.b	&0x119a,r15	
    670e:	3d f2       	and	#8,	r13	;r2 As==11
    6710:	01 24       	jz	$+4      	;abs 0x6714
    6712:	32 d2       	eint			
    6714:	4f 93       	tst.b	r15		
    6716:	38 24       	jz	$+114    	;abs 0x6788
    6718:	8e 10       	swpb	r14		
    671a:	3e f0 ff 00 	and	#255,	r14	;#0x00ff
    671e:	12 c3       	clrc			
    6720:	0e 10       	rrc	r14		
    6722:	0e 11       	rra	r14		
    6724:	3e f0 03 00 	and	#3,	r14	;#0x0003
    6728:	2e 93       	cmp	#2,	r14	;r3 As==10
    672a:	12 20       	jnz	$+38     	;abs 0x6750
    672c:	38 50 06 00 	add	#6,	r8	;#0x0006
    6730:	0f 48       	mov	r8,	r15	
    6732:	b0 12 3e 45 	call	#0x453e	
    6736:	07 4f       	mov	r15,	r7	
    6738:	b0 12 06 4b 	call	#0x4b06	
    673c:	07 9f       	cmp	r15,	r7	
    673e:	24 24       	jz	$+74     	;abs 0x6788
    6740:	0f 48       	mov	r8,	r15	
    6742:	b0 12 3e 45 	call	#0x453e	
    6746:	3f 93       	cmp	#-1,	r15	;r3 As==11
    6748:	02 24       	jz	$+6      	;abs 0x674e
    674a:	30 40 7a 6b 	br	#0x6b7a	
    674e:	1c 3c       	jmp	$+58     	;abs 0x6788
    6750:	3e 90 03 00 	cmp	#3,	r14	;#0x0003
    6754:	02 24       	jz	$+6      	;abs 0x675a
    6756:	30 40 7a 6b 	br	#0x6b7a	
    675a:	91 42 d6 12 00 00 	mov	&0x12d6,0(r1)	;0x0000(r1)
    6760:	91 42 d8 12 02 00 	mov	&0x12d8,2(r1)	;0x0002(r1)
    6766:	91 42 da 12 04 00 	mov	&0x12da,4(r1)	;0x0004(r1)
    676c:	91 42 dc 12 06 00 	mov	&0x12dc,6(r1)	;0x0006(r1)
    6772:	3d 42       	mov	#8,	r13	;r2 As==11
    6774:	0e 41       	mov	r1,	r14	
    6776:	0f 48       	mov	r8,	r15	
    6778:	3f 50 06 00 	add	#6,	r15	;#0x0006
    677c:	b0 12 28 7d 	call	#0x7d28	
    6780:	0f 93       	tst	r15		
    6782:	02 24       	jz	$+6      	;abs 0x6788
    6784:	30 40 7a 6b 	br	#0x6b7a	
    6788:	7a 90 0d 00 	cmp.b	#13,	r10	;#0x000d
    678c:	02 2c       	jc	$+6      	;abs 0x6792
    678e:	30 40 7a 6b 	br	#0x6b7a	
    6792:	15 42 28 11 	mov	&0x1128,r5	
    6796:	0a 45       	mov	r5,	r10	
    6798:	2a 82       	sub	#4,	r10	;r2 As==10
    679a:	0f 45       	mov	r5,	r15	
    679c:	3f 50 fd ff 	add	#-3,	r15	;#0xfffd
    67a0:	b0 12 3e 45 	call	#0x453e	
    67a4:	0e 4f       	mov	r15,	r14	
    67a6:	8e 10       	swpb	r14		
    67a8:	3e f0 ff 00 	and	#255,	r14	;#0x00ff
    67ac:	12 c3       	clrc			
    67ae:	0e 10       	rrc	r14		
    67b0:	0e 11       	rra	r14		
    67b2:	0d 4e       	mov	r14,	r13	
    67b4:	3d f0 03 00 	and	#3,	r13	;#0x0003
    67b8:	0e 11       	rra	r14		
    67ba:	0e 11       	rra	r14		
    67bc:	0e 11       	rra	r14		
    67be:	0e 11       	rra	r14		
    67c0:	3e 90 03 00 	cmp	#3,	r14	;#0x0003
    67c4:	02 24       	jz	$+6      	;abs 0x67ca
    67c6:	28 43       	mov	#2,	r8	;r3 As==10
    67c8:	01 3c       	jmp	$+4      	;abs 0x67cc
    67ca:	38 42       	mov	#8,	r8	;r2 As==11
    67cc:	3d 90 03 00 	cmp	#3,	r13	;#0x0003
    67d0:	02 24       	jz	$+6      	;abs 0x67d6
    67d2:	2c 43       	mov	#2,	r12	;r3 As==10
    67d4:	01 3c       	jmp	$+4      	;abs 0x67d8
    67d6:	3c 42       	mov	#8,	r12	;r2 As==11
    67d8:	3c 50 06 00 	add	#6,	r12	;#0x0006
    67dc:	0c 5a       	add	r10,	r12	
    67de:	0d 43       	clr	r13		
    67e0:	0e 4d       	mov	r13,	r14	
    67e2:	0f 4c       	mov	r12,	r15	
    67e4:	0f 5e       	add	r14,	r15	
    67e6:	6f 4f       	mov.b	@r15,	r15	
    67e8:	0d 5f       	add	r15,	r13	
    67ea:	1e 53       	inc	r14		
    67ec:	0e 98       	cmp	r8,	r14	
    67ee:	f9 3b       	jl	$-12     	;abs 0x67e2
    67f0:	56 4a 03 00 	mov.b	3(r10),	r6	;0x0003(r10)
    67f4:	f2 43 3e 13 	mov.b	#-1,	&0x133e	;r3 As==11
    67f8:	0c 42       	mov	r2,	r12	
    67fa:	3c f2       	and	#8,	r12	;r2 As==11
    67fc:	32 c2       	dint			
    67fe:	03 43       	nop			
    6800:	57 42 3e 13 	mov.b	&0x133e,r7	
    6804:	3e 40 3a 11 	mov	#4410,	r14	;#0x113a
    6808:	08 43       	clr	r8		
    680a:	2d 9e       	cmp	@r14,	r13	
    680c:	0d 20       	jnz	$+28     	;abs 0x6828
    680e:	ce 96 02 00 	cmp.b	r6,	2(r14)	;0x0002(r14)
    6812:	09 20       	jnz	$+20     	;abs 0x6826
    6814:	c2 47 3e 13 	mov.b	r7,	&0x133e	
    6818:	0c 93       	tst	r12		
    681a:	02 20       	jnz	$+6      	;abs 0x6820
    681c:	30 40 76 6b 	br	#0x6b76	
    6820:	32 d2       	eint			
    6822:	30 40 76 6b 	br	#0x6b76	
    6826:	47 48       	mov.b	r8,	r7	
    6828:	18 53       	inc	r8		
    682a:	2e 52       	add	#4,	r14	;r2 As==10
    682c:	28 92       	cmp	#4,	r8	;r2 As==10
    682e:	ed 23       	jnz	$-36     	;abs 0x680a
    6830:	c2 47 3e 13 	mov.b	r7,	&0x133e	
    6834:	0c 93       	tst	r12		
    6836:	02 20       	jnz	$+6      	;abs 0x683c
    6838:	30 40 e2 6b 	br	#0x6be2	
    683c:	32 d2       	eint			
    683e:	30 40 e2 6b 	br	#0x6be2	
    6842:	c2 9e 24 11 	cmp.b	r14,	&0x1124	
    6846:	04 20       	jnz	$+10     	;abs 0x6850
    6848:	5e 42 24 11 	mov.b	&0x1124,r14	
    684c:	58 43       	mov.b	#1,	r8	;r3 As==01
    684e:	01 3c       	jmp	$+4      	;abs 0x6852
    6850:	48 43       	clr.b	r8		
    6852:	4e 4e       	mov.b	r14,	r14	
    6854:	0e 5e       	rla	r14		
    6856:	0e 5e       	rla	r14		
    6858:	8e 4d 3a 11 	mov	r13,	4410(r14);0x113a(r14)
    685c:	ce 46 3c 11 	mov.b	r6,	4412(r14);0x113c(r14)
    6860:	48 93       	tst.b	r8		
    6862:	07 24       	jz	$+16     	;abs 0x6872
    6864:	5e 42 24 11 	mov.b	&0x1124,r14	
    6868:	5e 53       	inc.b	r14		
    686a:	7e f0 03 00 	and.b	#3,	r14	;#0x0003
    686e:	c2 4e 24 11 	mov.b	r14,	&0x1124	
    6872:	0c 93       	tst	r12		
    6874:	01 24       	jz	$+4      	;abs 0x6878
    6876:	32 d2       	eint			
    6878:	08 42       	mov	r2,	r8	
    687a:	32 c2       	dint			
    687c:	03 43       	nop			
    687e:	0f 45       	mov	r5,	r15	
    6880:	b0 12 2e 48 	call	#0x482e	
    6884:	6e 4f       	mov.b	@r15,	r14	
    6886:	38 b2       	bit	#8,	r8	;r2 As==11
    6888:	01 24       	jz	$+4      	;abs 0x688c
    688a:	32 d2       	eint			
    688c:	c5 93 27 00 	tst.b	39(r5)		;0x0027(r5)
    6890:	02 20       	jnz	$+6      	;abs 0x6896
    6892:	30 40 76 6b 	br	#0x6b76	
    6896:	7e 90 3f 00 	cmp.b	#63,	r14	;#0x003f
    689a:	02 24       	jz	$+6      	;abs 0x68a0
    689c:	30 40 76 6b 	br	#0x6b76	
    68a0:	08 4a       	mov	r10,	r8	
    68a2:	38 50 06 00 	add	#6,	r8	;#0x0006
    68a6:	0f 48       	mov	r8,	r15	
    68a8:	b0 12 3e 45 	call	#0x453e	
    68ac:	07 4f       	mov	r15,	r7	
    68ae:	b0 12 42 4f 	call	#0x4f42	
    68b2:	07 9f       	cmp	r15,	r7	
    68b4:	07 24       	jz	$+16     	;abs 0x68c4
    68b6:	0f 48       	mov	r8,	r15	
    68b8:	b0 12 3e 45 	call	#0x453e	
    68bc:	3f 93       	cmp	#-1,	r15	;r3 As==11
    68be:	02 24       	jz	$+6      	;abs 0x68c4
    68c0:	30 40 76 6b 	br	#0x6b76	
    68c4:	08 45       	mov	r5,	r8	
    68c6:	38 52       	add	#8,	r8	;r2 As==11
    68c8:	5e 4a 0b 00 	mov.b	11(r10),r14	;0x000b(r10)
    68cc:	7e 90 25 00 	cmp.b	#37,	r14	;#0x0025
    68d0:	12 25       	jz	$+550    	;abs 0x6af6
    68d2:	7e 90 26 00 	cmp.b	#38,	r14	;#0x0026
    68d6:	09 2c       	jc	$+20     	;abs 0x68ea
    68d8:	7e 90 20 00 	cmp.b	#32,	r14	;#0x0020
    68dc:	12 24       	jz	$+38     	;abs 0x6902
    68de:	7e 90 22 00 	cmp.b	#34,	r14	;#0x0022
    68e2:	02 24       	jz	$+6      	;abs 0x68e8
    68e4:	30 40 76 6b 	br	#0x6b76	
    68e8:	33 3c       	jmp	$+104    	;abs 0x6950
    68ea:	7e 90 27 00 	cmp.b	#39,	r14	;#0x0027
    68ee:	02 20       	jnz	$+6      	;abs 0x68f4
    68f0:	30 40 42 6b 	br	#0x6b42	
    68f4:	7e 90 42 00 	cmp.b	#66,	r14	;#0x0042
    68f8:	02 24       	jz	$+6      	;abs 0x68fe
    68fa:	30 40 76 6b 	br	#0x6b76	
    68fe:	30 40 4a 6b 	br	#0x6b4a	
    6902:	b0 12 54 4f 	call	#0x4f54	
    6906:	0a 4e       	mov	r14,	r10	
    6908:	0b 4f       	mov	r15,	r11	
    690a:	82 4e 30 12 	mov	r14,	&0x1230	
    690e:	82 4f 32 12 	mov	r15,	&0x1232	
    6912:	82 48 4c 11 	mov	r8,	&0x114c	
    6916:	f2 f0 fd ff 42 12 	and.b	#-3,	&0x1242	;#0xfffd
    691c:	0f 45       	mov	r5,	r15	
    691e:	3f 50 09 00 	add	#9,	r15	;#0x0009
    6922:	b0 12 7c 45 	call	#0x457c	
    6926:	82 4e 94 11 	mov	r14,	&0x1194	
    692a:	82 4f 96 11 	mov	r15,	&0x1196	
    692e:	b2 40 7c 12 8e 11 	mov	#4732,	&0x118e	;#0x127c
    6934:	0d 4a       	mov	r10,	r13	
    6936:	0e 4b       	mov	r11,	r14	
    6938:	3f 40 81 12 	mov	#4737,	r15	;#0x1281
    693c:	b0 12 4a 45 	call	#0x454a	
    6940:	1f 42 8e 11 	mov	&0x118e,r15	
    6944:	df 42 00 11 00 00 	mov.b	&0x1100,0(r15)	;0x0000(r15)
    694a:	b0 12 b6 51 	call	#0x51b6	
    694e:	ce 3c       	jmp	$+414    	;abs 0x6aec
    6950:	b0 12 54 4f 	call	#0x4f54	
    6954:	0a 4e       	mov	r14,	r10	
    6956:	0b 4f       	mov	r15,	r11	
    6958:	82 4e 56 11 	mov	r14,	&0x1156	
    695c:	82 4f 58 11 	mov	r15,	&0x1158	
    6960:	f2 f0 fd ff 42 12 	and.b	#-3,	&0x1242	;#0xfffd
    6966:	82 48 4c 11 	mov	r8,	&0x114c	
    696a:	0f 45       	mov	r5,	r15	
    696c:	3f 50 0d 00 	add	#13,	r15	;#0x000d
    6970:	b0 12 7c 45 	call	#0x457c	
    6974:	81 4e 08 00 	mov	r14,	8(r1)	;0x0008(r1)
    6978:	81 4f 0a 00 	mov	r15,	10(r1)	;0x000a(r1)
    697c:	82 4e 12 12 	mov	r14,	&0x1212	
    6980:	82 4f 14 12 	mov	r15,	&0x1214	
    6984:	0f 45       	mov	r5,	r15	
    6986:	3f 50 09 00 	add	#9,	r15	;#0x0009
    698a:	b0 12 7c 45 	call	#0x457c	
    698e:	08 4e       	mov	r14,	r8	
    6990:	09 4f       	mov	r15,	r9	
    6992:	82 4e 72 13 	mov	r14,	&0x1372	
    6996:	82 4f 74 13 	mov	r15,	&0x1374	
    699a:	1e 42 30 12 	mov	&0x1230,r14	
    699e:	1f 42 32 12 	mov	&0x1232,r15	
    69a2:	b0 12 4e 77 	call	#0x774e	
    69a6:	81 4e 0c 00 	mov	r14,	12(r1)	;0x000c(r1)
    69aa:	81 4f 0e 00 	mov	r15,	14(r1)	;0x000e(r1)
    69ae:	1e 42 94 11 	mov	&0x1194,r14	
    69b2:	1f 42 96 11 	mov	&0x1196,r15	
    69b6:	b0 12 4e 77 	call	#0x774e	
    69ba:	06 4e       	mov	r14,	r6	
    69bc:	07 4f       	mov	r15,	r7	
    69be:	0e 4a       	mov	r10,	r14	
    69c0:	0f 4b       	mov	r11,	r15	
    69c2:	b0 12 4e 77 	call	#0x774e	
    69c6:	1c 41 0c 00 	mov	12(r1),	r12	;0x000c(r1)
    69ca:	1d 41 0e 00 	mov	14(r1),	r13	;0x000e(r1)
    69ce:	b0 12 b2 72 	call	#0x72b2	
    69d2:	0a 4e       	mov	r14,	r10	
    69d4:	0b 4f       	mov	r15,	r11	
    69d6:	0e 48       	mov	r8,	r14	
    69d8:	0f 49       	mov	r9,	r15	
    69da:	b0 12 4e 77 	call	#0x774e	
    69de:	0c 46       	mov	r6,	r12	
    69e0:	0d 47       	mov	r7,	r13	
    69e2:	b0 12 b2 72 	call	#0x72b2	
    69e6:	0c 4e       	mov	r14,	r12	
    69e8:	0d 4f       	mov	r15,	r13	
    69ea:	0e 4a       	mov	r10,	r14	
    69ec:	0f 4b       	mov	r11,	r15	
    69ee:	b0 12 04 75 	call	#0x7504	
    69f2:	0a 4e       	mov	r14,	r10	
    69f4:	0b 4f       	mov	r15,	r11	
    69f6:	1e 42 36 11 	mov	&0x1136,r14	
    69fa:	1f 42 38 11 	mov	&0x1138,r15	
    69fe:	b0 12 4e 77 	call	#0x774e	
    6a02:	0c 4e       	mov	r14,	r12	
    6a04:	0d 4f       	mov	r15,	r13	
    6a06:	1e 41 0c 00 	mov	12(r1),	r14	;0x000c(r1)
    6a0a:	1f 41 0e 00 	mov	14(r1),	r15	;0x000e(r1)
    6a0e:	b0 12 62 72 	call	#0x7262	
    6a12:	0c 43       	clr	r12		
    6a14:	3d 40 00 3f 	mov	#16128,	r13	;#0x3f00
    6a18:	b0 12 06 73 	call	#0x7306	
    6a1c:	08 4e       	mov	r14,	r8	
    6a1e:	09 4f       	mov	r15,	r9	
    6a20:	1e 41 08 00 	mov	8(r1),	r14	;0x0008(r1)
    6a24:	1f 41 0a 00 	mov	10(r1),	r15	;0x000a(r1)
    6a28:	b0 12 4e 77 	call	#0x774e	
    6a2c:	0c 4e       	mov	r14,	r12	
    6a2e:	0d 4f       	mov	r15,	r13	
    6a30:	0e 46       	mov	r6,	r14	
    6a32:	0f 47       	mov	r7,	r15	
    6a34:	b0 12 62 72 	call	#0x7262	
    6a38:	0c 4a       	mov	r10,	r12	
    6a3a:	0d 4b       	mov	r11,	r13	
    6a3c:	b0 12 06 73 	call	#0x7306	
    6a40:	0c 43       	clr	r12		
    6a42:	3d 40 00 3f 	mov	#16128,	r13	;#0x3f00
    6a46:	b0 12 06 73 	call	#0x7306	
    6a4a:	0c 4e       	mov	r14,	r12	
    6a4c:	0d 4f       	mov	r15,	r13	
    6a4e:	0e 48       	mov	r8,	r14	
    6a50:	0f 49       	mov	r9,	r15	
    6a52:	b0 12 b2 72 	call	#0x72b2	
    6a56:	08 4e       	mov	r14,	r8	
    6a58:	09 4f       	mov	r15,	r9	
    6a5a:	3c 40 20 bc 	mov	#-17376,r12	;#0xbc20
    6a5e:	3d 40 be 4c 	mov	#19646,	r13	;#0x4cbe
    6a62:	0e 4a       	mov	r10,	r14	
    6a64:	0f 4b       	mov	r11,	r15	
    6a66:	b0 12 06 73 	call	#0x7306	
    6a6a:	0a 4e       	mov	r14,	r10	
    6a6c:	0b 4f       	mov	r15,	r11	
    6a6e:	82 4e 22 12 	mov	r14,	&0x1222	
    6a72:	82 4f 24 12 	mov	r15,	&0x1224	
    6a76:	0c 43       	clr	r12		
    6a78:	3d 40 7a 44 	mov	#17530,	r13	;#0x447a
    6a7c:	0e 48       	mov	r8,	r14	
    6a7e:	0f 49       	mov	r9,	r15	
    6a80:	b0 12 06 73 	call	#0x7306	
    6a84:	08 4e       	mov	r14,	r8	
    6a86:	09 4f       	mov	r15,	r9	
    6a88:	82 4e 32 11 	mov	r14,	&0x1132	
    6a8c:	82 4f 34 11 	mov	r15,	&0x1134	
    6a90:	0e 4a       	mov	r10,	r14	
    6a92:	0f 4b       	mov	r11,	r15	
    6a94:	b0 12 72 6f 	call	#0x6f72	
    6a98:	0a 4e       	mov	r14,	r10	
    6a9a:	0b 4f       	mov	r15,	r11	
    6a9c:	82 4e 50 11 	mov	r14,	&0x1150	
    6aa0:	82 4f 52 11 	mov	r15,	&0x1152	
    6aa4:	0e 48       	mov	r8,	r14	
    6aa6:	0f 49       	mov	r9,	r15	
    6aa8:	b0 12 72 6f 	call	#0x6f72	
    6aac:	82 4e 70 12 	mov	r14,	&0x1270	
    6ab0:	82 4f 72 12 	mov	r15,	&0x1272	
    6ab4:	b2 40 ea 11 2a 12 	mov	#4586,	&0x122a	;#0x11ea
    6aba:	0d 4a       	mov	r10,	r13	
    6abc:	0e 4b       	mov	r11,	r14	
    6abe:	3f 40 eb 11 	mov	#4587,	r15	;#0x11eb
    6ac2:	b0 12 4a 45 	call	#0x454a	
    6ac6:	1f 42 2a 12 	mov	&0x122a,r15	
    6aca:	df 42 00 11 00 00 	mov.b	&0x1100,0(r15)	;0x0000(r15)
    6ad0:	1d 42 70 12 	mov	&0x1270,r13	
    6ad4:	1e 42 72 12 	mov	&0x1272,r14	
    6ad8:	1f 42 2a 12 	mov	&0x122a,r15	
    6adc:	3f 50 05 00 	add	#5,	r15	;#0x0005
    6ae0:	b0 12 4a 45 	call	#0x454a	
    6ae4:	b0 12 b6 51 	call	#0x51b6	
    6ae8:	92 43 10 11 	mov	#1,	&0x1110	;r3 As==01
    6aec:	3d 40 10 27 	mov	#10000,	r13	;#0x2710
    6af0:	0e 43       	clr	r14		
    6af2:	4f 43       	clr.b	r15		
    6af4:	23 3c       	jmp	$+72     	;abs 0x6b3c
    6af6:	b0 12 54 4f 	call	#0x4f54	
    6afa:	82 4e e4 12 	mov	r14,	&0x12e4	
    6afe:	82 4f e6 12 	mov	r15,	&0x12e6	
    6b02:	b0 12 ca 51 	call	#0x51ca	
    6b06:	f2 f0 fd ff 4c 12 	and.b	#-3,	&0x124c	;#0xfffd
    6b0c:	82 48 4c 11 	mov	r8,	&0x114c	
    6b10:	b2 40 70 11 ca 11 	mov	#4464,	&0x11ca	;#0x1170
    6b16:	1d 42 e4 12 	mov	&0x12e4,r13	
    6b1a:	1e 42 e6 12 	mov	&0x12e6,r14	
    6b1e:	3f 40 75 11 	mov	#4469,	r15	;#0x1175
    6b22:	b0 12 4a 45 	call	#0x454a	
    6b26:	1f 42 ca 11 	mov	&0x11ca,r15	
    6b2a:	df 42 00 11 00 00 	mov.b	&0x1100,0(r15)	;0x0000(r15)
    6b30:	a2 43 02 11 	mov	#2,	&0x1102	;r3 As==10
    6b34:	3d 40 20 4e 	mov	#20000,	r13	;#0x4e20
    6b38:	0e 43       	clr	r14		
    6b3a:	5f 43       	mov.b	#1,	r15	;r3 As==01
    6b3c:	b0 12 b0 50 	call	#0x50b0	
    6b40:	1a 3c       	jmp	$+54     	;abs 0x6b76
    6b42:	f2 f0 fd ff 4c 12 	and.b	#-3,	&0x124c	;#0xfffd
    6b48:	16 3c       	jmp	$+46     	;abs 0x6b76
    6b4a:	b2 40 ac 12 ce 11 	mov	#4780,	&0x11ce	;#0x12ac
    6b50:	82 48 da 11 	mov	r8,	&0x11da	
    6b54:	0d 45       	mov	r5,	r13	
    6b56:	3d 50 0d 00 	add	#13,	r13	;#0x000d
    6b5a:	5e 4d 01 00 	mov.b	1(r13),	r14	;0x0001(r13)
    6b5e:	6d 4d       	mov.b	@r13,	r13	
    6b60:	8d 10       	swpb	r13		
    6b62:	0e dd       	bis	r13,	r14	
    6b64:	2e 53       	incd	r14		
    6b66:	c2 4e b2 12 	mov.b	r14,	&0x12b2	
    6b6a:	8e 10       	swpb	r14		
    6b6c:	c2 4e b1 12 	mov.b	r14,	&0x12b1	
    6b70:	d2 42 00 11 ac 12 	mov.b	&0x1100,&0x12ac	
    6b76:	82 45 28 11 	mov	r5,	&0x1128	
    6b7a:	0f 42       	mov	r2,	r15	
    6b7c:	32 c2       	dint			
    6b7e:	03 43       	nop			
    6b80:	c2 43 d0 11 	mov.b	#0,	&0x11d0	;r3 As==00
    6b84:	3f f2       	and	#8,	r15	;r2 As==11
    6b86:	01 24       	jz	$+4      	;abs 0x6b8a
    6b88:	32 d2       	eint			
    6b8a:	b0 12 02 58 	call	#0x5802	
    6b8e:	35 3c       	jmp	$+108    	;abs 0x6bfa
    6b90:	5a 42 e0 11 	mov.b	&0x11e0,r10	
    6b94:	5a 92 0d 11 	cmp.b	&0x110d,r10	
    6b98:	30 24       	jz	$+98     	;abs 0x6bfa
    6b9a:	c2 4a 0d 11 	mov.b	r10,	&0x110d	
    6b9e:	4a 93       	tst.b	r10		
    6ba0:	0e 20       	jnz	$+30     	;abs 0x6bbe
    6ba2:	18 42 26 11 	mov	&0x1126,r8	
    6ba6:	0f 48       	mov	r8,	r15	
    6ba8:	b0 12 6a 5b 	call	#0x5b6a	
    6bac:	4f 9a       	cmp.b	r10,	r15	
    6bae:	25 24       	jz	$+76     	;abs 0x6bfa
    6bb0:	f2 43 0d 11 	mov.b	#-1,	&0x110d	;r3 As==11
    6bb4:	5f 48 07 00 	mov.b	7(r8),	r15	;0x0007(r8)
    6bb8:	b0 12 4a 53 	call	#0x534a	
    6bbc:	1e 3c       	jmp	$+62     	;abs 0x6bfa
    6bbe:	f2 43 0d 11 	mov.b	#-1,	&0x110d	;r3 As==11
    6bc2:	1b 3c       	jmp	$+56     	;abs 0x6bfa
    6bc4:	c2 93 9a 12 	tst.b	&0x129a	
    6bc8:	05 24       	jz	$+12     	;abs 0x6bd4
    6bca:	0f 43       	clr	r15		
    6bcc:	b0 12 9e 52 	call	#0x529e	
    6bd0:	4f 43       	clr.b	r15		
    6bd2:	04 3c       	jmp	$+10     	;abs 0x6bdc
    6bd4:	1f 43       	mov	#1,	r15	;r3 As==01
    6bd6:	b0 12 9e 52 	call	#0x529e	
    6bda:	5f 43       	mov.b	#1,	r15	;r3 As==01
    6bdc:	b0 12 f4 52 	call	#0x52f4	
    6be0:	0c 3c       	jmp	$+26     	;abs 0x6bfa
    6be2:	5e 42 3e 13 	mov.b	&0x133e,r14	
    6be6:	0c 42       	mov	r2,	r12	
    6be8:	3c f2       	and	#8,	r12	;r2 As==11
    6bea:	32 c2       	dint			
    6bec:	03 43       	nop			
    6bee:	7e 93       	cmp.b	#-1,	r14	;r3 As==11
    6bf0:	02 24       	jz	$+6      	;abs 0x6bf6
    6bf2:	30 40 42 68 	br	#0x6842	
    6bf6:	30 40 48 68 	br	#0x6848	
    6bfa:	31 50 14 00 	add	#20,	r1	;#0x0014
    6bfe:	34 41       	pop	r4		
    6c00:	35 41       	pop	r5		
    6c02:	36 41       	pop	r6		
    6c04:	37 41       	pop	r7		
    6c06:	38 41       	pop	r8		
    6c08:	39 41       	pop	r9		
    6c0a:	3a 41       	pop	r10		
    6c0c:	3b 41       	pop	r11		
    6c0e:	30 41       	ret			

00006c10 <RealMainP__Scheduler__runNextTask>:
    6c10:	b0 12 44 47 	call	#0x4744	
    6c14:	7f 93       	cmp.b	#-1,	r15	;r3 As==11
    6c16:	04 24       	jz	$+10     	;abs 0x6c20
    6c18:	b0 12 44 62 	call	#0x6244	
    6c1c:	5f 43       	mov.b	#1,	r15	;r3 As==01
    6c1e:	30 41       	ret			
    6c20:	4f 43       	clr.b	r15		
    6c22:	30 41       	ret			

00006c24 <__nesc_atomic_start>:
    6c24:	0f 42       	mov	r2,	r15	
    6c26:	32 c2       	dint			
    6c28:	03 43       	nop			
    6c2a:	3f f2       	and	#8,	r15	;r2 As==11
    6c2c:	30 41       	ret			

00006c2e <__nesc_atomic_end>:
    6c2e:	0f 93       	tst	r15		
    6c30:	01 24       	jz	$+4      	;abs 0x6c34
    6c32:	32 d2       	eint			
    6c34:	30 41       	ret			

00006c36 <sig_TIMERA0_VECTOR>:
    6c36:	0f 12       	push	r15		
    6c38:	0e 12       	push	r14		
    6c3a:	0d 12       	push	r13		
    6c3c:	0c 12       	push	r12		
    6c3e:	4f 43       	clr.b	r15		
    6c40:	b0 12 f6 44 	call	#0x44f6	
    6c44:	3c 41       	pop	r12		
    6c46:	3d 41       	pop	r13		
    6c48:	3e 41       	pop	r14		
    6c4a:	3f 41       	pop	r15		
    6c4c:	b1 c0 f0 00 00 00 	bic	#240,	0(r1)	;#0x00f0, 0x0000(r1)
    6c52:	00 13       	reti			

00006c54 <sig_TIMERA1_VECTOR>:
    6c54:	0f 12       	push	r15		
    6c56:	0e 12       	push	r14		
    6c58:	0d 12       	push	r13		
    6c5a:	0c 12       	push	r12		
    6c5c:	1f 42 2e 01 	mov	&0x012e,r15	
    6c60:	12 c3       	clrc			
    6c62:	4f 10       	rrc.b	r15		
    6c64:	b0 12 f6 44 	call	#0x44f6	
    6c68:	3c 41       	pop	r12		
    6c6a:	3d 41       	pop	r13		
    6c6c:	3e 41       	pop	r14		
    6c6e:	3f 41       	pop	r15		
    6c70:	b1 c0 f0 00 00 00 	bic	#240,	0(r1)	;#0x00f0, 0x0000(r1)
    6c76:	00 13       	reti			

00006c78 <sig_TIMERB0_VECTOR>:
    6c78:	0f 12       	push	r15		
    6c7a:	0e 12       	push	r14		
    6c7c:	0d 12       	push	r13		
    6c7e:	0c 12       	push	r12		
    6c80:	4f 43       	clr.b	r15		
    6c82:	b0 12 3c 5f 	call	#0x5f3c	
    6c86:	3c 41       	pop	r12		
    6c88:	3d 41       	pop	r13		
    6c8a:	3e 41       	pop	r14		
    6c8c:	3f 41       	pop	r15		
    6c8e:	b1 c0 f0 00 00 00 	bic	#240,	0(r1)	;#0x00f0, 0x0000(r1)
    6c94:	00 13       	reti			

00006c96 <sig_TIMERB1_VECTOR>:
    6c96:	0f 12       	push	r15		
    6c98:	0e 12       	push	r14		
    6c9a:	0d 12       	push	r13		
    6c9c:	0c 12       	push	r12		
    6c9e:	1f 42 1e 01 	mov	&0x011e,r15	
    6ca2:	12 c3       	clrc			
    6ca4:	4f 10       	rrc.b	r15		
    6ca6:	b0 12 3c 5f 	call	#0x5f3c	
    6caa:	3c 41       	pop	r12		
    6cac:	3d 41       	pop	r13		
    6cae:	3e 41       	pop	r14		
    6cb0:	3f 41       	pop	r15		
    6cb2:	b1 c0 f0 00 00 00 	bic	#240,	0(r1)	;#0x00f0, 0x0000(r1)
    6cb8:	00 13       	reti			

00006cba <sig_PORT1_VECTOR>:
    6cba:	0f 12       	push	r15		
    6cbc:	0e 12       	push	r14		
    6cbe:	0d 12       	push	r13		
    6cc0:	0c 12       	push	r12		
    6cc2:	0b 12       	push	r11		
    6cc4:	21 83       	decd	r1		
    6cc6:	5f 42 25 00 	mov.b	&0x0025,r15	
    6cca:	5f f2 23 00 	and.b	&0x0023,r15	
    6cce:	c1 4f 00 00 	mov.b	r15,	0(r1)	;0x0000(r1)
    6cd2:	6f 41       	mov.b	@r1,	r15	
    6cd4:	1f f3       	and	#1,	r15	;r3 As==01
    6cd6:	0d 24       	jz	$+28     	;abs 0x6cf2
    6cd8:	b0 12 f4 46 	call	#0x46f4	
    6cdc:	92 93 90 11 	cmp	#1,	&0x1190	;r3 As==01
    6ce0:	05 20       	jnz	$+12     	;abs 0x6cec
    6ce2:	a2 43 90 11 	mov	#2,	&0x1190	;r3 As==10
    6ce6:	b0 12 dc 57 	call	#0x57dc	
    6cea:	50 3c       	jmp	$+162    	;abs 0x6d8c
    6cec:	d2 53 9b 11 	inc.b	&0x119b	
    6cf0:	4d 3c       	jmp	$+156    	;abs 0x6d8c
    6cf2:	6e 41       	mov.b	@r1,	r14	
    6cf4:	2e f3       	and	#2,	r14	;r3 As==10
    6cf6:	0e 9f       	cmp	r15,	r14	
    6cf8:	04 24       	jz	$+10     	;abs 0x6d02
    6cfa:	f2 f0 fd ff 23 00 	and.b	#-3,	&0x0023	;#0xfffd
    6d00:	45 3c       	jmp	$+140    	;abs 0x6d8c
    6d02:	6f 41       	mov.b	@r1,	r15	
    6d04:	2f f2       	and	#4,	r15	;r2 As==10
    6d06:	0f 9e       	cmp	r14,	r15	
    6d08:	04 24       	jz	$+10     	;abs 0x6d12
    6d0a:	f2 f0 fb ff 23 00 	and.b	#-5,	&0x0023	;#0xfffb
    6d10:	3d 3c       	jmp	$+124    	;abs 0x6d8c
    6d12:	6b 41       	mov.b	@r1,	r11	
    6d14:	3b f2       	and	#8,	r11	;r2 As==11
    6d16:	0b 9f       	cmp	r15,	r11	
    6d18:	04 24       	jz	$+10     	;abs 0x6d22
    6d1a:	f2 f0 f7 ff 23 00 	and.b	#-9,	&0x0023	;#0xfff7
    6d20:	35 3c       	jmp	$+108    	;abs 0x6d8c
    6d22:	6e 41       	mov.b	@r1,	r14	
    6d24:	3e f0 10 00 	and	#16,	r14	;#0x0010
    6d28:	0e 9b       	cmp	r11,	r14	
    6d2a:	18 24       	jz	$+50     	;abs 0x6d5c
    6d2c:	b0 12 ec 46 	call	#0x46ec	
    6d30:	a2 42 1a 11 	mov	#4,	&0x111a	;r2 As==10
    6d34:	f2 f0 ef ff 25 00 	and.b	#-17,	&0x0025	;#0xffef
    6d3a:	b0 12 ec 46 	call	#0x46ec	
    6d3e:	0e 4b       	mov	r11,	r14	
    6d40:	7f 40 1d 00 	mov.b	#29,	r15	;#0x001d
    6d44:	b0 12 20 4e 	call	#0x4e20	
    6d48:	b0 12 ea 4e 	call	#0x4eea	
    6d4c:	b0 12 80 4c 	call	#0x4c80	
    6d50:	b0 12 18 4b 	call	#0x4b18	
    6d54:	6f 43       	mov.b	#2,	r15	;r3 As==10
    6d56:	b0 12 2c 4b 	call	#0x4b2c	
    6d5a:	18 3c       	jmp	$+50     	;abs 0x6d8c
    6d5c:	6f 41       	mov.b	@r1,	r15	
    6d5e:	3f f0 20 00 	and	#32,	r15	;#0x0020
    6d62:	0f 9e       	cmp	r14,	r15	
    6d64:	04 24       	jz	$+10     	;abs 0x6d6e
    6d66:	f2 f0 df ff 23 00 	and.b	#-33,	&0x0023	;#0xffdf
    6d6c:	0f 3c       	jmp	$+32     	;abs 0x6d8c
    6d6e:	6e 41       	mov.b	@r1,	r14	
    6d70:	3e f0 40 00 	and	#64,	r14	;#0x0040
    6d74:	0e 9f       	cmp	r15,	r14	
    6d76:	04 24       	jz	$+10     	;abs 0x6d80
    6d78:	f2 f0 bf ff 23 00 	and.b	#-65,	&0x0023	;#0xffbf
    6d7e:	06 3c       	jmp	$+14     	;abs 0x6d8c
    6d80:	c1 93 00 00 	tst.b	0(r1)		;0x0000(r1)
    6d84:	03 34       	jge	$+8      	;abs 0x6d8c
    6d86:	f2 f0 7f 00 23 00 	and.b	#127,	&0x0023	;#0x007f
    6d8c:	21 53       	incd	r1		
    6d8e:	3b 41       	pop	r11		
    6d90:	3c 41       	pop	r12		
    6d92:	3d 41       	pop	r13		
    6d94:	3e 41       	pop	r14		
    6d96:	3f 41       	pop	r15		
    6d98:	b1 c0 f0 00 00 00 	bic	#240,	0(r1)	;#0x00f0, 0x0000(r1)
    6d9e:	00 13       	reti			

00006da0 <sig_PORT2_VECTOR>:
    6da0:	0f 12       	push	r15		
    6da2:	0e 12       	push	r14		
    6da4:	0d 12       	push	r13		
    6da6:	0c 12       	push	r12		
    6da8:	0b 12       	push	r11		
    6daa:	21 83       	decd	r1		
    6dac:	5f 42 2d 00 	mov.b	&0x002d,r15	
    6db0:	5f f2 2b 00 	and.b	&0x002b,r15	
    6db4:	c1 4f 00 00 	mov.b	r15,	0(r1)	;0x0000(r1)
    6db8:	6e 41       	mov.b	@r1,	r14	
    6dba:	1e f3       	and	#1,	r14	;r3 As==01
    6dbc:	04 24       	jz	$+10     	;abs 0x6dc6
    6dbe:	f2 f0 fe ff 2b 00 	and.b	#-2,	&0x002b	;#0xfffe
    6dc4:	48 3c       	jmp	$+146    	;abs 0x6e56
    6dc6:	6f 41       	mov.b	@r1,	r15	
    6dc8:	2f f3       	and	#2,	r15	;r3 As==10
    6dca:	0f 9e       	cmp	r14,	r15	
    6dcc:	04 24       	jz	$+10     	;abs 0x6dd6
    6dce:	f2 f0 fd ff 2b 00 	and.b	#-3,	&0x002b	;#0xfffd
    6dd4:	40 3c       	jmp	$+130    	;abs 0x6e56
    6dd6:	6e 41       	mov.b	@r1,	r14	
    6dd8:	2e f2       	and	#4,	r14	;r2 As==10
    6dda:	0e 9f       	cmp	r15,	r14	
    6ddc:	04 24       	jz	$+10     	;abs 0x6de6
    6dde:	f2 f0 fb ff 2b 00 	and.b	#-5,	&0x002b	;#0xfffb
    6de4:	38 3c       	jmp	$+114    	;abs 0x6e56
    6de6:	6f 41       	mov.b	@r1,	r15	
    6de8:	3f f2       	and	#8,	r15	;r2 As==11
    6dea:	0f 9e       	cmp	r14,	r15	
    6dec:	04 24       	jz	$+10     	;abs 0x6df6
    6dee:	f2 f0 f7 ff 2b 00 	and.b	#-9,	&0x002b	;#0xfff7
    6df4:	30 3c       	jmp	$+98     	;abs 0x6e56
    6df6:	6e 41       	mov.b	@r1,	r14	
    6df8:	3e f0 10 00 	and	#16,	r14	;#0x0010
    6dfc:	0e 9f       	cmp	r15,	r14	
    6dfe:	04 24       	jz	$+10     	;abs 0x6e08
    6e00:	f2 f0 ef ff 2b 00 	and.b	#-17,	&0x002b	;#0xffef
    6e06:	27 3c       	jmp	$+80     	;abs 0x6e56
    6e08:	6f 41       	mov.b	@r1,	r15	
    6e0a:	3f f0 20 00 	and	#32,	r15	;#0x0020
    6e0e:	0f 9e       	cmp	r14,	r15	
    6e10:	04 24       	jz	$+10     	;abs 0x6e1a
    6e12:	f2 f0 df ff 2b 00 	and.b	#-33,	&0x002b	;#0xffdf
    6e18:	1e 3c       	jmp	$+62     	;abs 0x6e56
    6e1a:	6b 41       	mov.b	@r1,	r11	
    6e1c:	3b f0 40 00 	and	#64,	r11	;#0x0040
    6e20:	0b 9f       	cmp	r15,	r11	
    6e22:	04 24       	jz	$+10     	;abs 0x6e2c
    6e24:	f2 f0 bf ff 2b 00 	and.b	#-65,	&0x002b	;#0xffbf
    6e2a:	15 3c       	jmp	$+44     	;abs 0x6e56
    6e2c:	c1 93 00 00 	tst.b	0(r1)		;0x0000(r1)
    6e30:	12 34       	jge	$+38     	;abs 0x6e56
    6e32:	b0 12 68 47 	call	#0x4768	
    6e36:	f2 f0 7f 00 2d 00 	and.b	#127,	&0x002d	;#0x007f
    6e3c:	b0 12 68 47 	call	#0x4768	
    6e40:	5f 43       	mov.b	#1,	r15	;r3 As==01
    6e42:	c2 93 9a 12 	tst.b	&0x129a	
    6e46:	01 24       	jz	$+4      	;abs 0x6e4a
    6e48:	4f 4b       	mov.b	r11,	r15	
    6e4a:	c2 4f 9a 12 	mov.b	r15,	&0x129a	
    6e4e:	7f 40 0c 00 	mov.b	#12,	r15	;#0x000c
    6e52:	b0 12 2c 4b 	call	#0x4b2c	
    6e56:	21 53       	incd	r1		
    6e58:	3b 41       	pop	r11		
    6e5a:	3c 41       	pop	r12		
    6e5c:	3d 41       	pop	r13		
    6e5e:	3e 41       	pop	r14		
    6e60:	3f 41       	pop	r15		
    6e62:	b1 c0 f0 00 00 00 	bic	#240,	0(r1)	;#0x00f0, 0x0000(r1)
    6e68:	00 13       	reti			

00006e6a <sig_UART0RX_VECTOR>:
    6e6a:	0f 12       	push	r15		
    6e6c:	0e 12       	push	r14		
    6e6e:	0d 12       	push	r13		
    6e70:	0c 12       	push	r12		
    6e72:	5e 42 76 00 	mov.b	&0x0076,r14	
    6e76:	c2 93 d1 11 	tst.b	&0x11d1	
    6e7a:	2e 24       	jz	$+94     	;abs 0x6ed8
    6e7c:	27 3c       	jmp	$+80     	;abs 0x6ecc
    6e7e:	1f 42 6e 12 	mov	&0x126e,r15	
    6e82:	0f 93       	tst	r15		
    6e84:	04 24       	jz	$+10     	;abs 0x6e8e
    6e86:	1f 52 34 13 	add	&0x1334,r15	
    6e8a:	cf 4e ff ff 	mov.b	r14,	-1(r15)	;0xffff(r15)
    6e8e:	92 92 38 13 34 13 	cmp	&0x1338,&0x1334	
    6e94:	03 2c       	jc	$+8      	;abs 0x6e9c
    6e96:	b0 12 26 4a 	call	#0x4a26	
    6e9a:	1e 3c       	jmp	$+62     	;abs 0x6ed8
    6e9c:	f2 f0 bf ff 00 00 	and.b	#-65,	&0x0000	;#0xffbf
    6ea2:	b0 12 78 58 	call	#0x5878	
    6ea6:	18 3c       	jmp	$+50     	;abs 0x6ed8
    6ea8:	1d 42 cc 11 	mov	&0x11cc,r13	
    6eac:	0d 93       	tst	r13		
    6eae:	14 24       	jz	$+42     	;abs 0x6ed8
    6eb0:	1f 42 6c 12 	mov	&0x126c,r15	
    6eb4:	0d 5f       	add	r15,	r13	
    6eb6:	cd 4e 00 00 	mov.b	r14,	0(r13)	;0x0000(r13)
    6eba:	1f 53       	inc	r15		
    6ebc:	82 4f 6c 12 	mov	r15,	&0x126c	
    6ec0:	1f 92 38 12 	cmp	&0x1238,r15	
    6ec4:	09 28       	jnc	$+20     	;abs 0x6ed8
    6ec6:	82 43 cc 11 	mov	#0,	&0x11cc	;r3 As==00
    6eca:	06 3c       	jmp	$+14     	;abs 0x6ed8
    6ecc:	5f 42 08 11 	mov.b	&0x1108,r15	
    6ed0:	4f 93       	tst.b	r15		
    6ed2:	d5 27       	jz	$-84     	;abs 0x6e7e
    6ed4:	5f 93       	cmp.b	#1,	r15	;r3 As==01
    6ed6:	e8 27       	jz	$-46     	;abs 0x6ea8
    6ed8:	3c 41       	pop	r12		
    6eda:	3d 41       	pop	r13		
    6edc:	3e 41       	pop	r14		
    6ede:	3f 41       	pop	r15		
    6ee0:	b1 c0 f0 00 00 00 	bic	#240,	0(r1)	;#0x00f0, 0x0000(r1)
    6ee6:	00 13       	reti			

00006ee8 <sig_UART0TX_VECTOR>:
    6ee8:	0f 12       	push	r15		
    6eea:	0e 12       	push	r14		
    6eec:	5f 42 70 00 	mov.b	&0x0070,r15	
    6ef0:	3f f0 20 00 	and	#32,	r15	;#0x0020
    6ef4:	08 24       	jz	$+18     	;abs 0x6f06
    6ef6:	5f 42 70 00 	mov.b	&0x0070,r15	
    6efa:	2f f2       	and	#4,	r15	;r2 As==10
    6efc:	04 24       	jz	$+10     	;abs 0x6f06
    6efe:	5f 42 70 00 	mov.b	&0x0070,r15	
    6f02:	1f f3       	and	#1,	r15	;r3 As==01
    6f04:	1c 20       	jnz	$+58     	;abs 0x6f3e
    6f06:	c2 9f d1 11 	cmp.b	r15,	&0x11d1	
    6f0a:	19 24       	jz	$+52     	;abs 0x6f3e
    6f0c:	15 3c       	jmp	$+44     	;abs 0x6f38
    6f0e:	c2 93 2a 11 	tst.b	&0x112a	
    6f12:	0f 20       	jnz	$+32     	;abs 0x6f32
    6f14:	1f 42 d6 11 	mov	&0x11d6,r15	
    6f18:	1f 92 9c 12 	cmp	&0x129c,r15	
    6f1c:	0a 2c       	jc	$+22     	;abs 0x6f32
    6f1e:	1e 42 40 13 	mov	&0x1340,r14	
    6f22:	0e 5f       	add	r15,	r14	
    6f24:	6e 4e       	mov.b	@r14,	r14	
    6f26:	1f 53       	inc	r15		
    6f28:	82 4f d6 11 	mov	r15,	&0x11d6	
    6f2c:	c2 4e 77 00 	mov.b	r14,	&0x0077	
    6f30:	06 3c       	jmp	$+14     	;abs 0x6f3e
    6f32:	82 43 40 13 	mov	#0,	&0x1340	;r3 As==00
    6f36:	03 3c       	jmp	$+8      	;abs 0x6f3e
    6f38:	d2 93 08 11 	cmp.b	#1,	&0x1108	;r3 As==01
    6f3c:	e8 27       	jz	$-46     	;abs 0x6f0e
    6f3e:	3e 41       	pop	r14		
    6f40:	3f 41       	pop	r15		
    6f42:	b1 c0 f0 00 00 00 	bic	#240,	0(r1)	;#0x00f0, 0x0000(r1)
    6f48:	00 13       	reti			

00006f4a <msp430_spi_default_config>:
    6f4a:	02 00 12 a2                                         ....

00006f4e <msp430_uart_default_config>:
    6f4e:	48 00 fb 10 20 08 03 00                             H... ...

00006f56 <McuSleepC__msp430PowerBits>:
    6f56:	00 00 10 00 50 00 90 00 d0 00 f0 00                 ....P.......

00006f62 <TelosSerialP__msp430_uart_telos_config>:
    6f62:	da 00 aa 10 20 08 03 00                             .... ...

00006f6a <CSWTCH.548>:
    6f6a:	00 00 9c ff 02 00 08 00                             ........

00006f72 <__fixunssfsi>:
    6f72:	0b 12       	push	r11		
    6f74:	0a 12       	push	r10		
    6f76:	0a 4e       	mov	r14,	r10	
    6f78:	0b 4f       	mov	r15,	r11	
    6f7a:	0c 43       	clr	r12		
    6f7c:	3d 40 00 4f 	mov	#20224,	r13	;#0x4f00
    6f80:	b0 12 64 76 	call	#0x7664	
    6f84:	0f 93       	tst	r15		
    6f86:	07 34       	jge	$+16     	;abs 0x6f96
    6f88:	0e 4a       	mov	r10,	r14	
    6f8a:	0f 4b       	mov	r11,	r15	
    6f8c:	b0 12 bc 76 	call	#0x76bc	
    6f90:	3a 41       	pop	r10		
    6f92:	3b 41       	pop	r11		
    6f94:	30 41       	ret			
    6f96:	0c 43       	clr	r12		
    6f98:	3d 40 00 4f 	mov	#20224,	r13	;#0x4f00
    6f9c:	0e 4a       	mov	r10,	r14	
    6f9e:	0f 4b       	mov	r11,	r15	
    6fa0:	b0 12 b2 72 	call	#0x72b2	
    6fa4:	b0 12 bc 76 	call	#0x76bc	
    6fa8:	0e 53       	add	#0,	r14	;r3 As==00
    6faa:	3f 60 00 80 	addc	#-32768,r15	;#0x8000
    6fae:	3a 41       	pop	r10		
    6fb0:	3b 41       	pop	r11		
    6fb2:	30 41       	ret			

00006fb4 <_fpadd_parts>:
    6fb4:	0b 12       	push	r11		
    6fb6:	0a 12       	push	r10		
    6fb8:	09 12       	push	r9		
    6fba:	08 12       	push	r8		
    6fbc:	07 12       	push	r7		
    6fbe:	06 12       	push	r6		
    6fc0:	05 12       	push	r5		
    6fc2:	04 12       	push	r4		
    6fc4:	31 82       	sub	#8,	r1	;r2 As==11
    6fc6:	81 4e 00 00 	mov	r14,	0(r1)	;0x0000(r1)
    6fca:	06 4d       	mov	r13,	r6	
    6fcc:	6b 4f       	mov.b	@r15,	r11	
    6fce:	59 43       	mov.b	#1,	r9	;r3 As==01
    6fd0:	49 9b       	cmp.b	r11,	r9	
    6fd2:	aa 2c       	jc	$+342    	;abs 0x7128
    6fd4:	6c 4e       	mov.b	@r14,	r12	
    6fd6:	49 9c       	cmp.b	r12,	r9	
    6fd8:	02 28       	jnc	$+6      	;abs 0x6fde
    6fda:	30 40 ee 71 	br	#0x71ee	
    6fde:	6b 92       	cmp.b	#4,	r11	;r2 As==10
    6fe0:	02 20       	jnz	$+6      	;abs 0x6fe6
    6fe2:	30 40 50 72 	br	#0x7250	
    6fe6:	6c 92       	cmp.b	#4,	r12	;r2 As==10
    6fe8:	02 20       	jnz	$+6      	;abs 0x6fee
    6fea:	30 40 ee 71 	br	#0x71ee	
    6fee:	6c 93       	cmp.b	#2,	r12	;r3 As==10
    6ff0:	c4 24       	jz	$+394    	;abs 0x717a
    6ff2:	6b 93       	cmp.b	#2,	r11	;r3 As==10
    6ff4:	02 20       	jnz	$+6      	;abs 0x6ffa
    6ff6:	30 40 ee 71 	br	#0x71ee	
    6ffa:	91 4f 02 00 02 00 	mov	2(r15),	2(r1)	;0x0002(r15), 0x0002(r1)
    7000:	2c 41       	mov	@r1,	r12	
    7002:	1b 4c 02 00 	mov	2(r12),	r11	;0x0002(r12)
    7006:	14 4f 04 00 	mov	4(r15),	r4	;0x0004(r15)
    700a:	15 4f 06 00 	mov	6(r15),	r5	;0x0006(r15)
    700e:	17 4c 04 00 	mov	4(r12),	r7	;0x0004(r12)
    7012:	18 4c 06 00 	mov	6(r12),	r8	;0x0006(r12)
    7016:	1c 41 02 00 	mov	2(r1),	r12	;0x0002(r1)
    701a:	0c 8b       	sub	r11,	r12	
    701c:	09 4c       	mov	r12,	r9	
    701e:	d9 30       	jn	$+436    	;abs 0x71d2
    7020:	39 90 20 00 	cmp	#32,	r9	;#0x0020
    7024:	8b 34       	jge	$+280    	;abs 0x713c
    7026:	1c 93       	cmp	#1,	r12	;r3 As==01
    7028:	02 34       	jge	$+6      	;abs 0x702e
    702a:	30 40 f2 71 	br	#0x71f2	
    702e:	0e 49       	mov	r9,	r14	
    7030:	0a 47       	mov	r7,	r10	
    7032:	0b 48       	mov	r8,	r11	
    7034:	0e 93       	tst	r14		
    7036:	05 24       	jz	$+12     	;abs 0x7042
    7038:	12 c3       	clrc			
    703a:	0b 10       	rrc	r11		
    703c:	0a 10       	rrc	r10		
    703e:	1e 83       	dec	r14		
    7040:	fb 23       	jnz	$-8      	;abs 0x7038
    7042:	81 4a 04 00 	mov	r10,	4(r1)	;0x0004(r1)
    7046:	81 4b 06 00 	mov	r11,	6(r1)	;0x0006(r1)
    704a:	1c 43       	mov	#1,	r12	;r3 As==01
    704c:	0d 43       	clr	r13		
    704e:	0e 49       	mov	r9,	r14	
    7050:	09 4c       	mov	r12,	r9	
    7052:	0a 4d       	mov	r13,	r10	
    7054:	0e 93       	tst	r14		
    7056:	04 24       	jz	$+10     	;abs 0x7060
    7058:	09 59       	rla	r9		
    705a:	0a 6a       	rlc	r10		
    705c:	1e 83       	dec	r14		
    705e:	fc 23       	jnz	$-6      	;abs 0x7058
    7060:	39 53       	add	#-1,	r9	;r3 As==11
    7062:	3a 63       	addc	#-1,	r10	;r3 As==11
    7064:	09 f7       	and	r7,	r9	
    7066:	0a f8       	and	r8,	r10	
    7068:	09 93       	tst	r9		
    706a:	b9 24       	jz	$+372    	;abs 0x71de
    706c:	17 41 04 00 	mov	4(r1),	r7	;0x0004(r1)
    7070:	18 41 06 00 	mov	6(r1),	r8	;0x0006(r1)
    7074:	07 dc       	bis	r12,	r7	
    7076:	08 dd       	bis	r13,	r8	
    7078:	5f 4f 01 00 	mov.b	1(r15),	r15	;0x0001(r15)
    707c:	2c 41       	mov	@r1,	r12	
    707e:	5f 9c 01 00 	cmp.b	1(r12),	r15	;0x0001(r12)
    7082:	67 24       	jz	$+208    	;abs 0x7152
    7084:	4f 93       	tst.b	r15		
    7086:	9b 24       	jz	$+312    	;abs 0x71be
    7088:	0c 47       	mov	r7,	r12	
    708a:	0d 48       	mov	r8,	r13	
    708c:	0c 84       	sub	r4,	r12	
    708e:	0d 75       	subc	r5,	r13	
    7090:	0d 93       	tst	r13		
    7092:	89 34       	jge	$+276    	;abs 0x71a6
    7094:	d6 43 01 00 	mov.b	#1,	1(r6)	;r3 As==01, 0x0001(r6)
    7098:	96 41 02 00 02 00 	mov	2(r1),	2(r6)	;0x0002(r1), 0x0002(r6)
    709e:	0e 4c       	mov	r12,	r14	
    70a0:	0f 4d       	mov	r13,	r15	
    70a2:	3e e3       	inv	r14		
    70a4:	3f e3       	inv	r15		
    70a6:	1e 53       	inc	r14		
    70a8:	0f 63       	adc	r15		
    70aa:	86 4e 04 00 	mov	r14,	4(r6)	;0x0004(r6)
    70ae:	86 4f 06 00 	mov	r15,	6(r6)	;0x0006(r6)
    70b2:	0c 4e       	mov	r14,	r12	
    70b4:	0d 4f       	mov	r15,	r13	
    70b6:	3c 53       	add	#-1,	r12	;r3 As==11
    70b8:	3d 63       	addc	#-1,	r13	;r3 As==11
    70ba:	39 40 fe ff 	mov	#-2,	r9	;#0xfffe
    70be:	3a 40 ff 3f 	mov	#16383,	r10	;#0x3fff
    70c2:	0a 9d       	cmp	r13,	r10	
    70c4:	1a 28       	jnc	$+54     	;abs 0x70fa
    70c6:	3d 90 ff 3f 	cmp	#16383,	r13	;#0x3fff
    70ca:	8e 24       	jz	$+286    	;abs 0x71e8
    70cc:	1b 46 02 00 	mov	2(r6),	r11	;0x0002(r6)
    70d0:	3b 53       	add	#-1,	r11	;r3 As==11
    70d2:	39 40 fe ff 	mov	#-2,	r9	;#0xfffe
    70d6:	3a 40 ff 3f 	mov	#16383,	r10	;#0x3fff
    70da:	0e 5e       	rla	r14		
    70dc:	0f 6f       	rlc	r15		
    70de:	08 4b       	mov	r11,	r8	
    70e0:	3b 53       	add	#-1,	r11	;r3 As==11
    70e2:	0c 4e       	mov	r14,	r12	
    70e4:	0d 4f       	mov	r15,	r13	
    70e6:	3c 53       	add	#-1,	r12	;r3 As==11
    70e8:	3d 63       	addc	#-1,	r13	;r3 As==11
    70ea:	0a 9d       	cmp	r13,	r10	
    70ec:	40 2c       	jc	$+130    	;abs 0x716e
    70ee:	86 4e 04 00 	mov	r14,	4(r6)	;0x0004(r6)
    70f2:	86 4f 06 00 	mov	r15,	6(r6)	;0x0006(r6)
    70f6:	86 48 02 00 	mov	r8,	2(r6)	;0x0002(r6)
    70fa:	f6 40 03 00 00 00 	mov.b	#3,	0(r6)	;#0x0003, 0x0000(r6)
    7100:	0f 93       	tst	r15		
    7102:	11 34       	jge	$+36     	;abs 0x7126
    7104:	0c 4e       	mov	r14,	r12	
    7106:	0d 4f       	mov	r15,	r13	
    7108:	1c f3       	and	#1,	r12	;r3 As==01
    710a:	0d f3       	and	#0,	r13	;r3 As==00
    710c:	12 c3       	clrc			
    710e:	0f 10       	rrc	r15		
    7110:	0e 10       	rrc	r14		
    7112:	0a 4c       	mov	r12,	r10	
    7114:	0b 4d       	mov	r13,	r11	
    7116:	0a de       	bis	r14,	r10	
    7118:	0b df       	bis	r15,	r11	
    711a:	86 4a 04 00 	mov	r10,	4(r6)	;0x0004(r6)
    711e:	86 4b 06 00 	mov	r11,	6(r6)	;0x0006(r6)
    7122:	96 53 02 00 	inc	2(r6)		;0x0002(r6)
    7126:	0f 46       	mov	r6,	r15	
    7128:	31 52       	add	#8,	r1	;r2 As==11
    712a:	34 41       	pop	r4		
    712c:	35 41       	pop	r5		
    712e:	36 41       	pop	r6		
    7130:	37 41       	pop	r7		
    7132:	38 41       	pop	r8		
    7134:	39 41       	pop	r9		
    7136:	3a 41       	pop	r10		
    7138:	3b 41       	pop	r11		
    713a:	30 41       	ret			
    713c:	1b 91 02 00 	cmp	2(r1),	r11	;0x0002(r1)
    7140:	43 34       	jge	$+136    	;abs 0x71c8
    7142:	07 43       	clr	r7		
    7144:	08 43       	clr	r8		
    7146:	5f 4f 01 00 	mov.b	1(r15),	r15	;0x0001(r15)
    714a:	2c 41       	mov	@r1,	r12	
    714c:	5f 9c 01 00 	cmp.b	1(r12),	r15	;0x0001(r12)
    7150:	99 23       	jnz	$-204    	;abs 0x7084
    7152:	c6 4f 01 00 	mov.b	r15,	1(r6)	;0x0001(r6)
    7156:	96 41 02 00 02 00 	mov	2(r1),	2(r6)	;0x0002(r1), 0x0002(r6)
    715c:	0e 47       	mov	r7,	r14	
    715e:	0f 48       	mov	r8,	r15	
    7160:	0e 54       	add	r4,	r14	
    7162:	0f 65       	addc	r5,	r15	
    7164:	86 4e 04 00 	mov	r14,	4(r6)	;0x0004(r6)
    7168:	86 4f 06 00 	mov	r15,	6(r6)	;0x0006(r6)
    716c:	c6 3f       	jmp	$-114    	;abs 0x70fa
    716e:	3d 90 ff 3f 	cmp	#16383,	r13	;#0x3fff
    7172:	b3 2b       	jnc	$-152    	;abs 0x70da
    7174:	09 9c       	cmp	r12,	r9	
    7176:	b1 2f       	jc	$-156    	;abs 0x70da
    7178:	ba 3f       	jmp	$-138    	;abs 0x70ee
    717a:	4b 9c       	cmp.b	r12,	r11	
    717c:	d5 23       	jnz	$-84     	;abs 0x7128
    717e:	ad 4f 00 00 	mov	@r15,	0(r13)	;0x0000(r13)
    7182:	9d 4f 02 00 02 00 	mov	2(r15),	2(r13)	;0x0002(r15), 0x0002(r13)
    7188:	9d 4f 04 00 04 00 	mov	4(r15),	4(r13)	;0x0004(r15), 0x0004(r13)
    718e:	9d 4f 06 00 06 00 	mov	6(r15),	6(r13)	;0x0006(r15), 0x0006(r13)
    7194:	2b 41       	mov	@r1,	r11	
    7196:	5a 4b 01 00 	mov.b	1(r11),	r10	;0x0001(r11)
    719a:	5a ff 01 00 	and.b	1(r15),	r10	;0x0001(r15)
    719e:	cd 4a 01 00 	mov.b	r10,	1(r13)	;0x0001(r13)
    71a2:	0f 4d       	mov	r13,	r15	
    71a4:	c1 3f       	jmp	$-124    	;abs 0x7128
    71a6:	c6 43 01 00 	mov.b	#0,	1(r6)	;r3 As==00, 0x0001(r6)
    71aa:	96 41 02 00 02 00 	mov	2(r1),	2(r6)	;0x0002(r1), 0x0002(r6)
    71b0:	0e 4c       	mov	r12,	r14	
    71b2:	0f 4d       	mov	r13,	r15	
    71b4:	86 4c 04 00 	mov	r12,	4(r6)	;0x0004(r6)
    71b8:	86 4d 06 00 	mov	r13,	6(r6)	;0x0006(r6)
    71bc:	7a 3f       	jmp	$-266    	;abs 0x70b2
    71be:	0c 44       	mov	r4,	r12	
    71c0:	0d 45       	mov	r5,	r13	
    71c2:	0c 87       	sub	r7,	r12	
    71c4:	0d 78       	subc	r8,	r13	
    71c6:	64 3f       	jmp	$-310    	;abs 0x7090
    71c8:	81 4b 02 00 	mov	r11,	2(r1)	;0x0002(r1)
    71cc:	04 43       	clr	r4		
    71ce:	05 43       	clr	r5		
    71d0:	53 3f       	jmp	$-344    	;abs 0x7078
    71d2:	39 e3       	inv	r9		
    71d4:	19 53       	inc	r9		
    71d6:	39 90 20 00 	cmp	#32,	r9	;#0x0020
    71da:	b0 37       	jge	$-158    	;abs 0x713c
    71dc:	24 3f       	jmp	$-438    	;abs 0x7026
    71de:	0a 93       	tst	r10		
    71e0:	45 23       	jnz	$-372    	;abs 0x706c
    71e2:	0c 43       	clr	r12		
    71e4:	0d 43       	clr	r13		
    71e6:	42 3f       	jmp	$-378    	;abs 0x706c
    71e8:	09 9c       	cmp	r12,	r9	
    71ea:	87 2b       	jnc	$-240    	;abs 0x70fa
    71ec:	6f 3f       	jmp	$-288    	;abs 0x70cc
    71ee:	2f 41       	mov	@r1,	r15	
    71f0:	9b 3f       	jmp	$-200    	;abs 0x7128
    71f2:	0c 93       	tst	r12		
    71f4:	41 27       	jz	$-380    	;abs 0x7078
    71f6:	81 59 02 00 	add	r9,	2(r1)	;0x0002(r1)
    71fa:	0e 49       	mov	r9,	r14	
    71fc:	0b 44       	mov	r4,	r11	
    71fe:	0c 45       	mov	r5,	r12	
    7200:	0e 93       	tst	r14		
    7202:	05 24       	jz	$+12     	;abs 0x720e
    7204:	12 c3       	clrc			
    7206:	0c 10       	rrc	r12		
    7208:	0b 10       	rrc	r11		
    720a:	1e 83       	dec	r14		
    720c:	fb 23       	jnz	$-8      	;abs 0x7204
    720e:	81 4b 04 00 	mov	r11,	4(r1)	;0x0004(r1)
    7212:	81 4c 06 00 	mov	r12,	6(r1)	;0x0006(r1)
    7216:	1d 43       	mov	#1,	r13	;r3 As==01
    7218:	0e 43       	clr	r14		
    721a:	0b 4d       	mov	r13,	r11	
    721c:	0c 4e       	mov	r14,	r12	
    721e:	09 93       	tst	r9		
    7220:	04 24       	jz	$+10     	;abs 0x722a
    7222:	0b 5b       	rla	r11		
    7224:	0c 6c       	rlc	r12		
    7226:	19 83       	dec	r9		
    7228:	fc 23       	jnz	$-6      	;abs 0x7222
    722a:	3b 53       	add	#-1,	r11	;r3 As==11
    722c:	3c 63       	addc	#-1,	r12	;r3 As==11
    722e:	0b f4       	and	r4,	r11	
    7230:	0c f5       	and	r5,	r12	
    7232:	0b 93       	tst	r11		
    7234:	08 24       	jz	$+18     	;abs 0x7246
    7236:	14 41 04 00 	mov	4(r1),	r4	;0x0004(r1)
    723a:	15 41 06 00 	mov	6(r1),	r5	;0x0006(r1)
    723e:	04 dd       	bis	r13,	r4	
    7240:	05 de       	bis	r14,	r5	
    7242:	30 40 78 70 	br	#0x7078	
    7246:	0c 93       	tst	r12		
    7248:	f6 23       	jnz	$-18     	;abs 0x7236
    724a:	0d 43       	clr	r13		
    724c:	0e 43       	clr	r14		
    724e:	f3 3f       	jmp	$-24     	;abs 0x7236
    7250:	4c 9b       	cmp.b	r11,	r12	
    7252:	6a 23       	jnz	$-298    	;abs 0x7128
    7254:	df 9e 01 00 01 00 	cmp.b	1(r14),	1(r15)	;0x0001(r14), 0x0001(r15)
    725a:	66 27       	jz	$-306    	;abs 0x7128
    725c:	3f 40 46 77 	mov	#30534,	r15	;#0x7746
    7260:	63 3f       	jmp	$-312    	;abs 0x7128

00007262 <__addsf3>:
    7262:	0b 12       	push	r11		
    7264:	0a 12       	push	r10		
    7266:	31 50 e0 ff 	add	#-32,	r1	;#0xffe0
    726a:	81 4e 00 00 	mov	r14,	0(r1)	;0x0000(r1)
    726e:	81 4f 02 00 	mov	r15,	2(r1)	;0x0002(r1)
    7272:	81 4c 04 00 	mov	r12,	4(r1)	;0x0004(r1)
    7276:	81 4d 06 00 	mov	r13,	6(r1)	;0x0006(r1)
    727a:	0b 41       	mov	r1,	r11	
    727c:	3b 52       	add	#8,	r11	;r2 As==11
    727e:	0e 4b       	mov	r11,	r14	
    7280:	0f 41       	mov	r1,	r15	
    7282:	b0 12 54 7a 	call	#0x7a54	
    7286:	0a 41       	mov	r1,	r10	
    7288:	3a 50 10 00 	add	#16,	r10	;#0x0010
    728c:	0e 4a       	mov	r10,	r14	
    728e:	0f 41       	mov	r1,	r15	
    7290:	2f 52       	add	#4,	r15	;r2 As==10
    7292:	b0 12 54 7a 	call	#0x7a54	
    7296:	0d 41       	mov	r1,	r13	
    7298:	3d 50 18 00 	add	#24,	r13	;#0x0018
    729c:	0e 4a       	mov	r10,	r14	
    729e:	0f 4b       	mov	r11,	r15	
    72a0:	b0 12 b4 6f 	call	#0x6fb4	
    72a4:	b0 12 7e 78 	call	#0x787e	
    72a8:	31 50 20 00 	add	#32,	r1	;#0x0020
    72ac:	3a 41       	pop	r10		
    72ae:	3b 41       	pop	r11		
    72b0:	30 41       	ret			

000072b2 <__subsf3>:
    72b2:	0b 12       	push	r11		
    72b4:	0a 12       	push	r10		
    72b6:	31 50 e0 ff 	add	#-32,	r1	;#0xffe0
    72ba:	81 4e 00 00 	mov	r14,	0(r1)	;0x0000(r1)
    72be:	81 4f 02 00 	mov	r15,	2(r1)	;0x0002(r1)
    72c2:	81 4c 04 00 	mov	r12,	4(r1)	;0x0004(r1)
    72c6:	81 4d 06 00 	mov	r13,	6(r1)	;0x0006(r1)
    72ca:	0b 41       	mov	r1,	r11	
    72cc:	3b 52       	add	#8,	r11	;r2 As==11
    72ce:	0e 4b       	mov	r11,	r14	
    72d0:	0f 41       	mov	r1,	r15	
    72d2:	b0 12 54 7a 	call	#0x7a54	
    72d6:	0a 41       	mov	r1,	r10	
    72d8:	3a 50 10 00 	add	#16,	r10	;#0x0010
    72dc:	0e 4a       	mov	r10,	r14	
    72de:	0f 41       	mov	r1,	r15	
    72e0:	2f 52       	add	#4,	r15	;r2 As==10
    72e2:	b0 12 54 7a 	call	#0x7a54	
    72e6:	d1 e3 11 00 	xor.b	#1,	17(r1)	;r3 As==01, 0x0011(r1)
    72ea:	0d 41       	mov	r1,	r13	
    72ec:	3d 50 18 00 	add	#24,	r13	;#0x0018
    72f0:	0e 4a       	mov	r10,	r14	
    72f2:	0f 4b       	mov	r11,	r15	
    72f4:	b0 12 b4 6f 	call	#0x6fb4	
    72f8:	b0 12 7e 78 	call	#0x787e	
    72fc:	31 50 20 00 	add	#32,	r1	;#0x0020
    7300:	3a 41       	pop	r10		
    7302:	3b 41       	pop	r11		
    7304:	30 41       	ret			

00007306 <__mulsf3>:
    7306:	0b 12       	push	r11		
    7308:	0a 12       	push	r10		
    730a:	09 12       	push	r9		
    730c:	08 12       	push	r8		
    730e:	07 12       	push	r7		
    7310:	06 12       	push	r6		
    7312:	05 12       	push	r5		
    7314:	04 12       	push	r4		
    7316:	31 50 de ff 	add	#-34,	r1	;#0xffde
    731a:	81 4e 00 00 	mov	r14,	0(r1)	;0x0000(r1)
    731e:	81 4f 02 00 	mov	r15,	2(r1)	;0x0002(r1)
    7322:	81 4c 04 00 	mov	r12,	4(r1)	;0x0004(r1)
    7326:	81 4d 06 00 	mov	r13,	6(r1)	;0x0006(r1)
    732a:	08 41       	mov	r1,	r8	
    732c:	38 52       	add	#8,	r8	;r2 As==11
    732e:	0e 48       	mov	r8,	r14	
    7330:	0f 41       	mov	r1,	r15	
    7332:	b0 12 54 7a 	call	#0x7a54	
    7336:	06 41       	mov	r1,	r6	
    7338:	36 50 10 00 	add	#16,	r6	;#0x0010
    733c:	0e 46       	mov	r6,	r14	
    733e:	0f 41       	mov	r1,	r15	
    7340:	2f 52       	add	#4,	r15	;r2 As==10
    7342:	b0 12 54 7a 	call	#0x7a54	
    7346:	5c 41 08 00 	mov.b	8(r1),	r12	;0x0008(r1)
    734a:	5d 43       	mov.b	#1,	r13	;r3 As==01
    734c:	4d 9c       	cmp.b	r12,	r13	
    734e:	a4 2c       	jc	$+330    	;abs 0x7498
    7350:	5a 41 10 00 	mov.b	16(r1),	r10	;0x0010(r1)
    7354:	4d 9a       	cmp.b	r10,	r13	
    7356:	c4 2c       	jc	$+394    	;abs 0x74e0
    7358:	6c 92       	cmp.b	#4,	r12	;r2 As==10
    735a:	9c 24       	jz	$+314    	;abs 0x7494
    735c:	6a 92       	cmp.b	#4,	r10	;r2 As==10
    735e:	02 20       	jnz	$+6      	;abs 0x7364
    7360:	30 40 fa 74 	br	#0x74fa	
    7364:	6c 93       	cmp.b	#2,	r12	;r3 As==10
    7366:	98 24       	jz	$+306    	;abs 0x7498
    7368:	6a 93       	cmp.b	#2,	r10	;r3 As==10
    736a:	ba 24       	jz	$+374    	;abs 0x74e0
    736c:	14 41 0c 00 	mov	12(r1),	r4	;0x000c(r1)
    7370:	91 41 0e 00 20 00 	mov	14(r1),	32(r1)	;0x000e(r1), 0x0020(r1)
    7376:	1a 41 14 00 	mov	20(r1),	r10	;0x0014(r1)
    737a:	1b 41 16 00 	mov	22(r1),	r11	;0x0016(r1)
    737e:	05 43       	clr	r5		
    7380:	0c 43       	clr	r12		
    7382:	0d 43       	clr	r13		
    7384:	06 4c       	mov	r12,	r6	
    7386:	07 4d       	mov	r13,	r7	
    7388:	08 4c       	mov	r12,	r8	
    738a:	09 4d       	mov	r13,	r9	
    738c:	19 3c       	jmp	$+52     	;abs 0x73c0
    738e:	0e 43       	clr	r14		
    7390:	0f 43       	clr	r15		
    7392:	0c 5e       	add	r14,	r12	
    7394:	0d 6f       	addc	r15,	r13	
    7396:	06 56       	rla	r6		
    7398:	07 67       	rlc	r7		
    739a:	0b 93       	tst	r11		
    739c:	02 34       	jge	$+6      	;abs 0x73a2
    739e:	16 d3       	bis	#1,	r6	;r3 As==01
    73a0:	07 d3       	bis	#0,	r7	;r3 As==00
    73a2:	15 53       	inc	r5		
    73a4:	35 90 20 00 	cmp	#32,	r5	;#0x0020
    73a8:	1a 24       	jz	$+54     	;abs 0x73de
    73aa:	0a 5a       	rla	r10		
    73ac:	0b 6b       	rlc	r11		
    73ae:	0e 44       	mov	r4,	r14	
    73b0:	1f 41 20 00 	mov	32(r1),	r15	;0x0020(r1)
    73b4:	12 c3       	clrc			
    73b6:	0f 10       	rrc	r15		
    73b8:	0e 10       	rrc	r14		
    73ba:	04 4e       	mov	r14,	r4	
    73bc:	81 4f 20 00 	mov	r15,	32(r1)	;0x0020(r1)
    73c0:	14 b3       	bit	#1,	r4	;r3 As==01
    73c2:	e9 27       	jz	$-44     	;abs 0x7396
    73c4:	08 5a       	add	r10,	r8	
    73c6:	09 6b       	addc	r11,	r9	
    73c8:	0c 56       	add	r6,	r12	
    73ca:	0d 67       	addc	r7,	r13	
    73cc:	1e 43       	mov	#1,	r14	;r3 As==01
    73ce:	0f 43       	clr	r15		
    73d0:	09 9b       	cmp	r11,	r9	
    73d2:	df 2b       	jnc	$-64     	;abs 0x7392
    73d4:	09 9b       	cmp	r11,	r9	
    73d6:	db 23       	jnz	$-72     	;abs 0x738e
    73d8:	08 9a       	cmp	r10,	r8	
    73da:	db 2b       	jnc	$-72     	;abs 0x7392
    73dc:	d8 3f       	jmp	$-78     	;abs 0x738e
    73de:	0a 4d       	mov	r13,	r10	
    73e0:	1f 41 12 00 	mov	18(r1),	r15	;0x0012(r1)
    73e4:	1f 51 0a 00 	add	10(r1),	r15	;0x000a(r1)
    73e8:	0e 4f       	mov	r15,	r14	
    73ea:	2e 53       	incd	r14		
    73ec:	81 4e 1a 00 	mov	r14,	26(r1)	;0x001a(r1)
    73f0:	5e 43       	mov.b	#1,	r14	;r3 As==01
    73f2:	d1 91 11 00 09 00 	cmp.b	17(r1),	9(r1)	;0x0011(r1), 0x0009(r1)
    73f8:	57 24       	jz	$+176    	;abs 0x74a8
    73fa:	c1 4e 19 00 	mov.b	r14,	25(r1)	;0x0019(r1)
    73fe:	0a 93       	tst	r10		
    7400:	13 34       	jge	$+40     	;abs 0x7428
    7402:	3f 50 03 00 	add	#3,	r15	;#0x0003
    7406:	0a 4f       	mov	r15,	r10	
    7408:	1c b3       	bit	#1,	r12	;r3 As==01
    740a:	06 24       	jz	$+14     	;abs 0x7418
    740c:	12 c3       	clrc			
    740e:	09 10       	rrc	r9		
    7410:	08 10       	rrc	r8		
    7412:	08 d3       	bis	#0,	r8	;r3 As==00
    7414:	39 d0 00 80 	bis	#-32768,r9	;#0x8000
    7418:	12 c3       	clrc			
    741a:	0d 10       	rrc	r13		
    741c:	0c 10       	rrc	r12		
    741e:	1f 53       	inc	r15		
    7420:	0d 93       	tst	r13		
    7422:	f1 3b       	jl	$-28     	;abs 0x7406
    7424:	81 4a 1a 00 	mov	r10,	26(r1)	;0x001a(r1)
    7428:	3a 43       	mov	#-1,	r10	;r3 As==11
    742a:	3b 40 ff 3f 	mov	#16383,	r11	;#0x3fff
    742e:	0b 9d       	cmp	r13,	r11	
    7430:	12 28       	jnc	$+38     	;abs 0x7456
    7432:	1f 41 1a 00 	mov	26(r1),	r15	;0x001a(r1)
    7436:	3f 53       	add	#-1,	r15	;r3 As==11
    7438:	0a 4b       	mov	r11,	r10	
    743a:	0e 4f       	mov	r15,	r14	
    743c:	0c 5c       	rla	r12		
    743e:	0d 6d       	rlc	r13		
    7440:	09 93       	tst	r9		
    7442:	02 34       	jge	$+6      	;abs 0x7448
    7444:	1c d3       	bis	#1,	r12	;r3 As==01
    7446:	0d d3       	bis	#0,	r13	;r3 As==00
    7448:	08 58       	rla	r8		
    744a:	09 69       	rlc	r9		
    744c:	3f 53       	add	#-1,	r15	;r3 As==11
    744e:	0a 9d       	cmp	r13,	r10	
    7450:	f4 2f       	jc	$-22     	;abs 0x743a
    7452:	81 4e 1a 00 	mov	r14,	26(r1)	;0x001a(r1)
    7456:	0e 4c       	mov	r12,	r14	
    7458:	0f 4d       	mov	r13,	r15	
    745a:	3e f0 7f 00 	and	#127,	r14	;#0x007f
    745e:	0f f3       	and	#0,	r15	;r3 As==00
    7460:	3e 90 40 00 	cmp	#64,	r14	;#0x0040
    7464:	27 24       	jz	$+80     	;abs 0x74b4
    7466:	81 4c 1c 00 	mov	r12,	28(r1)	;0x001c(r1)
    746a:	81 4d 1e 00 	mov	r13,	30(r1)	;0x001e(r1)
    746e:	f1 40 03 00 18 00 	mov.b	#3,	24(r1)	;#0x0003, 0x0018(r1)
    7474:	0f 41       	mov	r1,	r15	
    7476:	3f 50 18 00 	add	#24,	r15	;#0x0018
    747a:	b0 12 7e 78 	call	#0x787e	
    747e:	31 50 22 00 	add	#34,	r1	;#0x0022
    7482:	34 41       	pop	r4		
    7484:	35 41       	pop	r5		
    7486:	36 41       	pop	r6		
    7488:	37 41       	pop	r7		
    748a:	38 41       	pop	r8		
    748c:	39 41       	pop	r9		
    748e:	3a 41       	pop	r10		
    7490:	3b 41       	pop	r11		
    7492:	30 41       	ret			
    7494:	6a 93       	cmp.b	#2,	r10	;r3 As==10
    7496:	33 24       	jz	$+104    	;abs 0x74fe
    7498:	d1 91 11 00 09 00 	cmp.b	17(r1),	9(r1)	;0x0011(r1), 0x0009(r1)
    749e:	1e 24       	jz	$+62     	;abs 0x74dc
    74a0:	c1 4d 09 00 	mov.b	r13,	9(r1)	;0x0009(r1)
    74a4:	0f 48       	mov	r8,	r15	
    74a6:	e9 3f       	jmp	$-44     	;abs 0x747a
    74a8:	4e 43       	clr.b	r14		
    74aa:	c1 4e 19 00 	mov.b	r14,	25(r1)	;0x0019(r1)
    74ae:	0a 93       	tst	r10		
    74b0:	bb 37       	jge	$-136    	;abs 0x7428
    74b2:	a7 3f       	jmp	$-176    	;abs 0x7402
    74b4:	0f 93       	tst	r15		
    74b6:	d7 23       	jnz	$-80     	;abs 0x7466
    74b8:	0e 4c       	mov	r12,	r14	
    74ba:	0f 4d       	mov	r13,	r15	
    74bc:	3e f0 80 00 	and	#128,	r14	;#0x0080
    74c0:	0f f3       	and	#0,	r15	;r3 As==00
    74c2:	0e 93       	tst	r14		
    74c4:	d0 23       	jnz	$-94     	;abs 0x7466
    74c6:	0f 93       	tst	r15		
    74c8:	ce 23       	jnz	$-98     	;abs 0x7466
    74ca:	08 93       	tst	r8		
    74cc:	13 24       	jz	$+40     	;abs 0x74f4
    74ce:	3c 50 40 00 	add	#64,	r12	;#0x0040
    74d2:	0d 63       	adc	r13		
    74d4:	3c f0 80 ff 	and	#-128,	r12	;#0xff80
    74d8:	3d f3       	and	#-1,	r13	;r3 As==11
    74da:	c5 3f       	jmp	$-116    	;abs 0x7466
    74dc:	4d 43       	clr.b	r13		
    74de:	e0 3f       	jmp	$-62     	;abs 0x74a0
    74e0:	d1 91 11 00 09 00 	cmp.b	17(r1),	9(r1)	;0x0011(r1), 0x0009(r1)
    74e6:	04 24       	jz	$+10     	;abs 0x74f0
    74e8:	c1 4d 11 00 	mov.b	r13,	17(r1)	;0x0011(r1)
    74ec:	0f 46       	mov	r6,	r15	
    74ee:	c5 3f       	jmp	$-116    	;abs 0x747a
    74f0:	4d 43       	clr.b	r13		
    74f2:	fa 3f       	jmp	$-10     	;abs 0x74e8
    74f4:	09 93       	tst	r9		
    74f6:	eb 23       	jnz	$-40     	;abs 0x74ce
    74f8:	b6 3f       	jmp	$-146    	;abs 0x7466
    74fa:	6c 93       	cmp.b	#2,	r12	;r3 As==10
    74fc:	f1 23       	jnz	$-28     	;abs 0x74e0
    74fe:	3f 40 46 77 	mov	#30534,	r15	;#0x7746
    7502:	bb 3f       	jmp	$-136    	;abs 0x747a

00007504 <__divsf3>:
    7504:	0b 12       	push	r11		
    7506:	0a 12       	push	r10		
    7508:	09 12       	push	r9		
    750a:	08 12       	push	r8		
    750c:	07 12       	push	r7		
    750e:	06 12       	push	r6		
    7510:	05 12       	push	r5		
    7512:	31 50 e8 ff 	add	#-24,	r1	;#0xffe8
    7516:	81 4e 00 00 	mov	r14,	0(r1)	;0x0000(r1)
    751a:	81 4f 02 00 	mov	r15,	2(r1)	;0x0002(r1)
    751e:	81 4c 04 00 	mov	r12,	4(r1)	;0x0004(r1)
    7522:	81 4d 06 00 	mov	r13,	6(r1)	;0x0006(r1)
    7526:	05 41       	mov	r1,	r5	
    7528:	35 52       	add	#8,	r5	;r2 As==11
    752a:	0e 45       	mov	r5,	r14	
    752c:	0f 41       	mov	r1,	r15	
    752e:	b0 12 54 7a 	call	#0x7a54	
    7532:	09 41       	mov	r1,	r9	
    7534:	39 50 10 00 	add	#16,	r9	;#0x0010
    7538:	0e 49       	mov	r9,	r14	
    753a:	0f 41       	mov	r1,	r15	
    753c:	2f 52       	add	#4,	r15	;r2 As==10
    753e:	b0 12 54 7a 	call	#0x7a54	
    7542:	5d 41 08 00 	mov.b	8(r1),	r13	;0x0008(r1)
    7546:	5b 43       	mov.b	#1,	r11	;r3 As==01
    7548:	4b 9d       	cmp.b	r13,	r11	
    754a:	64 2c       	jc	$+202    	;abs 0x7614
    754c:	5c 41 10 00 	mov.b	16(r1),	r12	;0x0010(r1)
    7550:	4b 9c       	cmp.b	r12,	r11	
    7552:	86 2c       	jc	$+270    	;abs 0x7660
    7554:	d1 e1 11 00 09 00 	xor.b	17(r1),	9(r1)	;0x0011(r1), 0x0009(r1)
    755a:	6d 92       	cmp.b	#4,	r13	;r2 As==10
    755c:	5d 24       	jz	$+188    	;abs 0x7618
    755e:	6d 93       	cmp.b	#2,	r13	;r3 As==10
    7560:	5b 24       	jz	$+184    	;abs 0x7618
    7562:	6c 92       	cmp.b	#4,	r12	;r2 As==10
    7564:	75 24       	jz	$+236    	;abs 0x7650
    7566:	6c 93       	cmp.b	#2,	r12	;r3 As==10
    7568:	53 24       	jz	$+168    	;abs 0x7610
    756a:	1f 41 0a 00 	mov	10(r1),	r15	;0x000a(r1)
    756e:	1f 81 12 00 	sub	18(r1),	r15	;0x0012(r1)
    7572:	81 4f 0a 00 	mov	r15,	10(r1)	;0x000a(r1)
    7576:	1d 41 0c 00 	mov	12(r1),	r13	;0x000c(r1)
    757a:	1e 41 0e 00 	mov	14(r1),	r14	;0x000e(r1)
    757e:	17 41 14 00 	mov	20(r1),	r7	;0x0014(r1)
    7582:	18 41 16 00 	mov	22(r1),	r8	;0x0016(r1)
    7586:	0e 98       	cmp	r8,	r14	
    7588:	3e 2c       	jc	$+126    	;abs 0x7606
    758a:	0d 5d       	rla	r13		
    758c:	0e 6e       	rlc	r14		
    758e:	3f 53       	add	#-1,	r15	;r3 As==11
    7590:	81 4f 0a 00 	mov	r15,	10(r1)	;0x000a(r1)
    7594:	36 40 1f 00 	mov	#31,	r6	;#0x001f
    7598:	0b 43       	clr	r11		
    759a:	3c 40 00 40 	mov	#16384,	r12	;#0x4000
    759e:	09 43       	clr	r9		
    75a0:	0a 43       	clr	r10		
    75a2:	0b 3c       	jmp	$+24     	;abs 0x75ba
    75a4:	09 db       	bis	r11,	r9	
    75a6:	0a dc       	bis	r12,	r10	
    75a8:	0d 87       	sub	r7,	r13	
    75aa:	0e 78       	subc	r8,	r14	
    75ac:	12 c3       	clrc			
    75ae:	0c 10       	rrc	r12		
    75b0:	0b 10       	rrc	r11		
    75b2:	0d 5d       	rla	r13		
    75b4:	0e 6e       	rlc	r14		
    75b6:	36 53       	add	#-1,	r6	;r3 As==11
    75b8:	0d 24       	jz	$+28     	;abs 0x75d4
    75ba:	0e 98       	cmp	r8,	r14	
    75bc:	f7 2b       	jnc	$-16     	;abs 0x75ac
    75be:	0e 98       	cmp	r8,	r14	
    75c0:	f1 23       	jnz	$-28     	;abs 0x75a4
    75c2:	0d 97       	cmp	r7,	r13	
    75c4:	ef 2f       	jc	$-32     	;abs 0x75a4
    75c6:	12 c3       	clrc			
    75c8:	0c 10       	rrc	r12		
    75ca:	0b 10       	rrc	r11		
    75cc:	0d 5d       	rla	r13		
    75ce:	0e 6e       	rlc	r14		
    75d0:	36 53       	add	#-1,	r6	;r3 As==11
    75d2:	f3 23       	jnz	$-24     	;abs 0x75ba
    75d4:	0b 49       	mov	r9,	r11	
    75d6:	0c 4a       	mov	r10,	r12	
    75d8:	3b f0 7f 00 	and	#127,	r11	;#0x007f
    75dc:	0c f3       	and	#0,	r12	;r3 As==00
    75de:	3b 90 40 00 	cmp	#64,	r11	;#0x0040
    75e2:	1f 24       	jz	$+64     	;abs 0x7622
    75e4:	81 49 0c 00 	mov	r9,	12(r1)	;0x000c(r1)
    75e8:	81 4a 0e 00 	mov	r10,	14(r1)	;0x000e(r1)
    75ec:	0f 45       	mov	r5,	r15	
    75ee:	b0 12 7e 78 	call	#0x787e	
    75f2:	31 50 18 00 	add	#24,	r1	;#0x0018
    75f6:	35 41       	pop	r5		
    75f8:	36 41       	pop	r6		
    75fa:	37 41       	pop	r7		
    75fc:	38 41       	pop	r8		
    75fe:	39 41       	pop	r9		
    7600:	3a 41       	pop	r10		
    7602:	3b 41       	pop	r11		
    7604:	30 41       	ret			
    7606:	08 9e       	cmp	r14,	r8	
    7608:	c5 2b       	jnc	$-116    	;abs 0x7594
    760a:	0d 97       	cmp	r7,	r13	
    760c:	c3 2f       	jc	$-120    	;abs 0x7594
    760e:	bd 3f       	jmp	$-132    	;abs 0x758a
    7610:	e1 42 08 00 	mov.b	#4,	8(r1)	;r2 As==10, 0x0008(r1)
    7614:	0f 45       	mov	r5,	r15	
    7616:	eb 3f       	jmp	$-40     	;abs 0x75ee
    7618:	4d 9c       	cmp.b	r12,	r13	
    761a:	fc 23       	jnz	$-6      	;abs 0x7614
    761c:	3f 40 46 77 	mov	#30534,	r15	;#0x7746
    7620:	e6 3f       	jmp	$-50     	;abs 0x75ee
    7622:	0c 93       	tst	r12		
    7624:	df 23       	jnz	$-64     	;abs 0x75e4
    7626:	0b 49       	mov	r9,	r11	
    7628:	0c 4a       	mov	r10,	r12	
    762a:	3b f0 80 00 	and	#128,	r11	;#0x0080
    762e:	0c f3       	and	#0,	r12	;r3 As==00
    7630:	0b 93       	tst	r11		
    7632:	d8 23       	jnz	$-78     	;abs 0x75e4
    7634:	0c 93       	tst	r12		
    7636:	d6 23       	jnz	$-82     	;abs 0x75e4
    7638:	0d 93       	tst	r13		
    763a:	07 24       	jz	$+16     	;abs 0x764a
    763c:	39 50 40 00 	add	#64,	r9	;#0x0040
    7640:	0a 63       	adc	r10		
    7642:	39 f0 80 ff 	and	#-128,	r9	;#0xff80
    7646:	3a f3       	and	#-1,	r10	;r3 As==11
    7648:	cd 3f       	jmp	$-100    	;abs 0x75e4
    764a:	0e 93       	tst	r14		
    764c:	f7 23       	jnz	$-16     	;abs 0x763c
    764e:	ca 3f       	jmp	$-106    	;abs 0x75e4
    7650:	81 43 0c 00 	mov	#0,	12(r1)	;r3 As==00, 0x000c(r1)
    7654:	81 43 0e 00 	mov	#0,	14(r1)	;r3 As==00, 0x000e(r1)
    7658:	81 43 0a 00 	mov	#0,	10(r1)	;r3 As==00, 0x000a(r1)
    765c:	0f 45       	mov	r5,	r15	
    765e:	c7 3f       	jmp	$-112    	;abs 0x75ee
    7660:	0f 49       	mov	r9,	r15	
    7662:	c5 3f       	jmp	$-116    	;abs 0x75ee

00007664 <__gesf2>:
    7664:	0b 12       	push	r11		
    7666:	0a 12       	push	r10		
    7668:	31 50 e8 ff 	add	#-24,	r1	;#0xffe8
    766c:	81 4e 00 00 	mov	r14,	0(r1)	;0x0000(r1)
    7670:	81 4f 02 00 	mov	r15,	2(r1)	;0x0002(r1)
    7674:	81 4c 04 00 	mov	r12,	4(r1)	;0x0004(r1)
    7678:	81 4d 06 00 	mov	r13,	6(r1)	;0x0006(r1)
    767c:	0b 41       	mov	r1,	r11	
    767e:	3b 52       	add	#8,	r11	;r2 As==11
    7680:	0e 4b       	mov	r11,	r14	
    7682:	0f 41       	mov	r1,	r15	
    7684:	b0 12 54 7a 	call	#0x7a54	
    7688:	0a 41       	mov	r1,	r10	
    768a:	3a 50 10 00 	add	#16,	r10	;#0x0010
    768e:	0e 4a       	mov	r10,	r14	
    7690:	0f 41       	mov	r1,	r15	
    7692:	2f 52       	add	#4,	r15	;r2 As==10
    7694:	b0 12 54 7a 	call	#0x7a54	
    7698:	5d 43       	mov.b	#1,	r13	;r3 As==01
    769a:	5d 91 08 00 	cmp.b	8(r1),	r13	;0x0008(r1)
    769e:	0c 2c       	jc	$+26     	;abs 0x76b8
    76a0:	5d 91 10 00 	cmp.b	16(r1),	r13	;0x0010(r1)
    76a4:	09 2c       	jc	$+20     	;abs 0x76b8
    76a6:	0e 4a       	mov	r10,	r14	
    76a8:	0f 4b       	mov	r11,	r15	
    76aa:	b0 12 86 7b 	call	#0x7b86	
    76ae:	31 50 18 00 	add	#24,	r1	;#0x0018
    76b2:	3a 41       	pop	r10		
    76b4:	3b 41       	pop	r11		
    76b6:	30 41       	ret			
    76b8:	3f 43       	mov	#-1,	r15	;r3 As==11
    76ba:	f9 3f       	jmp	$-12     	;abs 0x76ae

000076bc <__fixsfsi>:
    76bc:	31 50 f4 ff 	add	#-12,	r1	;#0xfff4
    76c0:	81 4e 00 00 	mov	r14,	0(r1)	;0x0000(r1)
    76c4:	81 4f 02 00 	mov	r15,	2(r1)	;0x0002(r1)
    76c8:	0e 41       	mov	r1,	r14	
    76ca:	2e 52       	add	#4,	r14	;r2 As==10
    76cc:	0f 41       	mov	r1,	r15	
    76ce:	b0 12 54 7a 	call	#0x7a54	
    76d2:	5f 41 04 00 	mov.b	4(r1),	r15	;0x0004(r1)
    76d6:	6f 93       	cmp.b	#2,	r15	;r3 As==10
    76d8:	2b 24       	jz	$+88     	;abs 0x7730
    76da:	6f 93       	cmp.b	#2,	r15	;r3 As==10
    76dc:	29 28       	jnc	$+84     	;abs 0x7730
    76de:	6f 92       	cmp.b	#4,	r15	;r2 As==10
    76e0:	08 24       	jz	$+18     	;abs 0x76f2
    76e2:	1d 41 06 00 	mov	6(r1),	r13	;0x0006(r1)
    76e6:	0d 93       	tst	r13		
    76e8:	23 38       	jl	$+72     	;abs 0x7730
    76ea:	3c 40 1e 00 	mov	#30,	r12	;#0x001e
    76ee:	0c 9d       	cmp	r13,	r12	
    76f0:	09 34       	jge	$+20     	;abs 0x7704
    76f2:	c1 93 05 00 	tst.b	5(r1)		;0x0005(r1)
    76f6:	21 20       	jnz	$+68     	;abs 0x773a
    76f8:	3e 43       	mov	#-1,	r14	;r3 As==11
    76fa:	3f 40 ff 7f 	mov	#32767,	r15	;#0x7fff
    76fe:	31 50 0c 00 	add	#12,	r1	;#0x000c
    7702:	30 41       	ret			
    7704:	1e 41 08 00 	mov	8(r1),	r14	;0x0008(r1)
    7708:	1f 41 0a 00 	mov	10(r1),	r15	;0x000a(r1)
    770c:	0c 8d       	sub	r13,	r12	
    770e:	0c 93       	tst	r12		
    7710:	05 24       	jz	$+12     	;abs 0x771c
    7712:	12 c3       	clrc			
    7714:	0f 10       	rrc	r15		
    7716:	0e 10       	rrc	r14		
    7718:	1c 83       	dec	r12		
    771a:	fb 23       	jnz	$-8      	;abs 0x7712
    771c:	c1 93 05 00 	tst.b	5(r1)		;0x0005(r1)
    7720:	ee 27       	jz	$-34     	;abs 0x76fe
    7722:	3e e3       	inv	r14		
    7724:	3f e3       	inv	r15		
    7726:	1e 53       	inc	r14		
    7728:	0f 63       	adc	r15		
    772a:	31 50 0c 00 	add	#12,	r1	;#0x000c
    772e:	30 41       	ret			
    7730:	0e 43       	clr	r14		
    7732:	0f 43       	clr	r15		
    7734:	31 50 0c 00 	add	#12,	r1	;#0x000c
    7738:	30 41       	ret			
    773a:	0e 43       	clr	r14		
    773c:	3f 40 00 80 	mov	#-32768,r15	;#0x8000
    7740:	31 50 0c 00 	add	#12,	r1	;#0x000c
    7744:	30 41       	ret			

00007746 <__thenan_sf>:
	...

0000774e <__floatunsisf>:
    774e:	0b 12       	push	r11		
    7750:	0a 12       	push	r10		
    7752:	09 12       	push	r9		
    7754:	08 12       	push	r8		
    7756:	07 12       	push	r7		
    7758:	31 82       	sub	#8,	r1	;r2 As==11
    775a:	0a 4e       	mov	r14,	r10	
    775c:	0b 4f       	mov	r15,	r11	
    775e:	c1 43 01 00 	mov.b	#0,	1(r1)	;r3 As==00, 0x0001(r1)
    7762:	0e 93       	tst	r14		
    7764:	2d 24       	jz	$+92     	;abs 0x77c0
    7766:	f1 40 03 00 00 00 	mov.b	#3,	0(r1)	;#0x0003, 0x0000(r1)
    776c:	b1 40 1e 00 02 00 	mov	#30,	2(r1)	;#0x001e, 0x0002(r1)
    7772:	81 4a 04 00 	mov	r10,	4(r1)	;0x0004(r1)
    7776:	81 4b 06 00 	mov	r11,	6(r1)	;0x0006(r1)
    777a:	0e 4a       	mov	r10,	r14	
    777c:	0f 4b       	mov	r11,	r15	
    777e:	b0 12 26 78 	call	#0x7826	
    7782:	0d 4f       	mov	r15,	r13	
    7784:	3d 53       	add	#-1,	r13	;r3 As==11
    7786:	21 30       	jn	$+68     	;abs 0x77ca
    7788:	0d 93       	tst	r13		
    778a:	10 24       	jz	$+34     	;abs 0x77ac
    778c:	0f 4d       	mov	r13,	r15	
    778e:	0f 93       	tst	r15		
    7790:	04 24       	jz	$+10     	;abs 0x779a
    7792:	0a 5a       	rla	r10		
    7794:	0b 6b       	rlc	r11		
    7796:	1f 83       	dec	r15		
    7798:	fc 23       	jnz	$-6      	;abs 0x7792
    779a:	81 4a 04 00 	mov	r10,	4(r1)	;0x0004(r1)
    779e:	81 4b 06 00 	mov	r11,	6(r1)	;0x0006(r1)
    77a2:	3f 40 1e 00 	mov	#30,	r15	;#0x001e
    77a6:	0f 8d       	sub	r13,	r15	
    77a8:	81 4f 02 00 	mov	r15,	2(r1)	;0x0002(r1)
    77ac:	0f 41       	mov	r1,	r15	
    77ae:	b0 12 7e 78 	call	#0x787e	
    77b2:	31 52       	add	#8,	r1	;r2 As==11
    77b4:	37 41       	pop	r7		
    77b6:	38 41       	pop	r8		
    77b8:	39 41       	pop	r9		
    77ba:	3a 41       	pop	r10		
    77bc:	3b 41       	pop	r11		
    77be:	30 41       	ret			
    77c0:	0b 93       	tst	r11		
    77c2:	d1 23       	jnz	$-92     	;abs 0x7766
    77c4:	e1 43 00 00 	mov.b	#2,	0(r1)	;r3 As==10, 0x0000(r1)
    77c8:	f1 3f       	jmp	$-28     	;abs 0x77ac
    77ca:	0c 4d       	mov	r13,	r12	
    77cc:	3c e3       	inv	r12		
    77ce:	1c 53       	inc	r12		
    77d0:	18 43       	mov	#1,	r8	;r3 As==01
    77d2:	09 43       	clr	r9		
    77d4:	07 4c       	mov	r12,	r7	
    77d6:	0e 48       	mov	r8,	r14	
    77d8:	0f 49       	mov	r9,	r15	
    77da:	07 93       	tst	r7		
    77dc:	04 24       	jz	$+10     	;abs 0x77e6
    77de:	0e 5e       	rla	r14		
    77e0:	0f 6f       	rlc	r15		
    77e2:	17 83       	dec	r7		
    77e4:	fc 23       	jnz	$-6      	;abs 0x77de
    77e6:	3e 53       	add	#-1,	r14	;r3 As==11
    77e8:	3f 63       	addc	#-1,	r15	;r3 As==11
    77ea:	0e fa       	and	r10,	r14	
    77ec:	0f fb       	and	r11,	r15	
    77ee:	0e 93       	tst	r14		
    77f0:	15 24       	jz	$+44     	;abs 0x781c
    77f2:	0c 93       	tst	r12		
    77f4:	05 24       	jz	$+12     	;abs 0x7800
    77f6:	12 c3       	clrc			
    77f8:	0b 10       	rrc	r11		
    77fa:	0a 10       	rrc	r10		
    77fc:	1c 83       	dec	r12		
    77fe:	fb 23       	jnz	$-8      	;abs 0x77f6
    7800:	0e 48       	mov	r8,	r14	
    7802:	0f 49       	mov	r9,	r15	
    7804:	0e da       	bis	r10,	r14	
    7806:	0f db       	bis	r11,	r15	
    7808:	81 4e 04 00 	mov	r14,	4(r1)	;0x0004(r1)
    780c:	81 4f 06 00 	mov	r15,	6(r1)	;0x0006(r1)
    7810:	3f 40 1e 00 	mov	#30,	r15	;#0x001e
    7814:	0f 8d       	sub	r13,	r15	
    7816:	81 4f 02 00 	mov	r15,	2(r1)	;0x0002(r1)
    781a:	c8 3f       	jmp	$-110    	;abs 0x77ac
    781c:	0f 93       	tst	r15		
    781e:	e9 23       	jnz	$-44     	;abs 0x77f2
    7820:	08 43       	clr	r8		
    7822:	09 43       	clr	r9		
    7824:	e6 3f       	jmp	$-50     	;abs 0x77f2

00007826 <__clzsi2>:
    7826:	0b 12       	push	r11		
    7828:	0f 93       	tst	r15		
    782a:	16 20       	jnz	$+46     	;abs 0x7858
    782c:	3e 90 00 01 	cmp	#256,	r14	;#0x0100
    7830:	21 28       	jnc	$+68     	;abs 0x7874
    7832:	3b 40 18 00 	mov	#24,	r11	;#0x0018
    7836:	0c 43       	clr	r12		
    7838:	3d 42       	mov	#8,	r13	;r2 As==11
    783a:	0d 93       	tst	r13		
    783c:	05 24       	jz	$+12     	;abs 0x7848
    783e:	12 c3       	clrc			
    7840:	0f 10       	rrc	r15		
    7842:	0e 10       	rrc	r14		
    7844:	1d 83       	dec	r13		
    7846:	fb 23       	jnz	$-8      	;abs 0x783e
    7848:	0f 4e       	mov	r14,	r15	
    784a:	3f 50 28 7c 	add	#31784,	r15	;#0x7c28
    784e:	6d 4f       	mov.b	@r15,	r13	
    7850:	0f 4b       	mov	r11,	r15	
    7852:	0f 8d       	sub	r13,	r15	
    7854:	3b 41       	pop	r11		
    7856:	30 41       	ret			
    7858:	3f 90 00 01 	cmp	#256,	r15	;#0x0100
    785c:	05 28       	jnc	$+12     	;abs 0x7868
    785e:	3b 42       	mov	#8,	r11	;r2 As==11
    7860:	0c 43       	clr	r12		
    7862:	3d 40 18 00 	mov	#24,	r13	;#0x0018
    7866:	e9 3f       	jmp	$-44     	;abs 0x783a
    7868:	3b 40 10 00 	mov	#16,	r11	;#0x0010
    786c:	0c 43       	clr	r12		
    786e:	3d 40 10 00 	mov	#16,	r13	;#0x0010
    7872:	e3 3f       	jmp	$-56     	;abs 0x783a
    7874:	3b 40 20 00 	mov	#32,	r11	;#0x0020
    7878:	0c 43       	clr	r12		
    787a:	0d 43       	clr	r13		
    787c:	de 3f       	jmp	$-66     	;abs 0x783a

0000787e <__pack_f>:
    787e:	0b 12       	push	r11		
    7880:	0a 12       	push	r10		
    7882:	09 12       	push	r9		
    7884:	08 12       	push	r8		
    7886:	07 12       	push	r7		
    7888:	06 12       	push	r6		
    788a:	1d 4f 04 00 	mov	4(r15),	r13	;0x0004(r15)
    788e:	1e 4f 06 00 	mov	6(r15),	r14	;0x0006(r15)
    7892:	5a 4f 01 00 	mov.b	1(r15),	r10	;0x0001(r15)
    7896:	6c 4f       	mov.b	@r15,	r12	
    7898:	6c 93       	cmp.b	#2,	r12	;r3 As==10
    789a:	bc 28       	jnc	$+378    	;abs 0x7a14
    789c:	6c 92       	cmp.b	#4,	r12	;r2 As==10
    789e:	b6 24       	jz	$+366    	;abs 0x7a0c
    78a0:	6c 93       	cmp.b	#2,	r12	;r3 As==10
    78a2:	32 24       	jz	$+102    	;abs 0x7908
    78a4:	0d 93       	tst	r13		
    78a6:	2e 24       	jz	$+94     	;abs 0x7904
    78a8:	1f 4f 02 00 	mov	2(r15),	r15	;0x0002(r15)
    78ac:	3f 90 82 ff 	cmp	#-126,	r15	;#0xff82
    78b0:	61 38       	jl	$+196    	;abs 0x7974
    78b2:	3f 90 80 00 	cmp	#128,	r15	;#0x0080
    78b6:	aa 34       	jge	$+342    	;abs 0x7a0c
    78b8:	3f 50 7f 00 	add	#127,	r15	;#0x007f
    78bc:	0b 4d       	mov	r13,	r11	
    78be:	0c 4e       	mov	r14,	r12	
    78c0:	3b f0 7f 00 	and	#127,	r11	;#0x007f
    78c4:	0c f3       	and	#0,	r12	;r3 As==00
    78c6:	3b 90 40 00 	cmp	#64,	r11	;#0x0040
    78ca:	47 24       	jz	$+144    	;abs 0x795a
    78cc:	3d 50 3f 00 	add	#63,	r13	;#0x003f
    78d0:	0e 63       	adc	r14		
    78d2:	0e 93       	tst	r14		
    78d4:	04 34       	jge	$+10     	;abs 0x78de
    78d6:	12 c3       	clrc			
    78d8:	0e 10       	rrc	r14		
    78da:	0d 10       	rrc	r13		
    78dc:	1f 53       	inc	r15		
    78de:	12 c3       	clrc			
    78e0:	0e 10       	rrc	r14		
    78e2:	0d 10       	rrc	r13		
    78e4:	0e 11       	rra	r14		
    78e6:	0d 10       	rrc	r13		
    78e8:	0e 11       	rra	r14		
    78ea:	0d 10       	rrc	r13		
    78ec:	0e 11       	rra	r14		
    78ee:	0d 10       	rrc	r13		
    78f0:	0e 11       	rra	r14		
    78f2:	0d 10       	rrc	r13		
    78f4:	0e 11       	rra	r14		
    78f6:	0d 10       	rrc	r13		
    78f8:	0e 11       	rra	r14		
    78fa:	0d 10       	rrc	r13		
    78fc:	3d f3       	and	#-1,	r13	;r3 As==11
    78fe:	3e f0 7f 00 	and	#127,	r14	;#0x007f
    7902:	05 3c       	jmp	$+12     	;abs 0x790e
    7904:	0e 93       	tst	r14		
    7906:	d0 23       	jnz	$-94     	;abs 0x78a8
    7908:	4f 43       	clr.b	r15		
    790a:	0d 43       	clr	r13		
    790c:	0e 43       	clr	r14		
    790e:	0b 43       	clr	r11		
    7910:	0c 43       	clr	r12		
    7912:	0b 4d       	mov	r13,	r11	
    7914:	0d 4e       	mov	r14,	r13	
    7916:	3d f0 7f 00 	and	#127,	r13	;#0x007f
    791a:	0e 4c       	mov	r12,	r14	
    791c:	3e f0 80 ff 	and	#-128,	r14	;#0xff80
    7920:	0e dd       	bis	r13,	r14	
    7922:	4f 4f       	mov.b	r15,	r15	
    7924:	0f 5f       	rla	r15		
    7926:	0f 5f       	rla	r15		
    7928:	0f 5f       	rla	r15		
    792a:	0f 5f       	rla	r15		
    792c:	0f 5f       	rla	r15		
    792e:	0f 5f       	rla	r15		
    7930:	0f 5f       	rla	r15		
    7932:	3e f0 7f 80 	and	#-32641,r14	;#0x807f
    7936:	0e df       	bis	r15,	r14	
    7938:	0f 4a       	mov	r10,	r15	
    793a:	0f 11       	rra	r15		
    793c:	0f 43       	clr	r15		
    793e:	0f 10       	rrc	r15		
    7940:	3e f0 ff 7f 	and	#32767,	r14	;#0x7fff
    7944:	0c 4e       	mov	r14,	r12	
    7946:	0c df       	bis	r15,	r12	
    7948:	0e 4b       	mov	r11,	r14	
    794a:	0f 4c       	mov	r12,	r15	
    794c:	36 41       	pop	r6		
    794e:	37 41       	pop	r7		
    7950:	38 41       	pop	r8		
    7952:	39 41       	pop	r9		
    7954:	3a 41       	pop	r10		
    7956:	3b 41       	pop	r11		
    7958:	30 41       	ret			
    795a:	0c 93       	tst	r12		
    795c:	b7 23       	jnz	$-144    	;abs 0x78cc
    795e:	0b 4d       	mov	r13,	r11	
    7960:	0c 4e       	mov	r14,	r12	
    7962:	3b f0 80 00 	and	#128,	r11	;#0x0080
    7966:	0c f3       	and	#0,	r12	;r3 As==00
    7968:	0b 93       	tst	r11		
    796a:	4d 24       	jz	$+156    	;abs 0x7a06
    796c:	3d 50 40 00 	add	#64,	r13	;#0x0040
    7970:	0e 63       	adc	r14		
    7972:	af 3f       	jmp	$-160    	;abs 0x78d2
    7974:	3c 40 82 ff 	mov	#-126,	r12	;#0xff82
    7978:	0c 8f       	sub	r15,	r12	
    797a:	0f 4c       	mov	r12,	r15	
    797c:	3c 90 1a 00 	cmp	#26,	r12	;#0x001a
    7980:	51 34       	jge	$+164    	;abs 0x7a24
    7982:	06 4d       	mov	r13,	r6	
    7984:	07 4e       	mov	r14,	r7	
    7986:	0c 93       	tst	r12		
    7988:	05 24       	jz	$+12     	;abs 0x7994
    798a:	12 c3       	clrc			
    798c:	07 10       	rrc	r7		
    798e:	06 10       	rrc	r6		
    7990:	1c 83       	dec	r12		
    7992:	fb 23       	jnz	$-8      	;abs 0x798a
    7994:	18 43       	mov	#1,	r8	;r3 As==01
    7996:	09 43       	clr	r9		
    7998:	0b 48       	mov	r8,	r11	
    799a:	0c 49       	mov	r9,	r12	
    799c:	0f 93       	tst	r15		
    799e:	04 24       	jz	$+10     	;abs 0x79a8
    79a0:	0b 5b       	rla	r11		
    79a2:	0c 6c       	rlc	r12		
    79a4:	1f 83       	dec	r15		
    79a6:	fc 23       	jnz	$-6      	;abs 0x79a0
    79a8:	3b 53       	add	#-1,	r11	;r3 As==11
    79aa:	3c 63       	addc	#-1,	r12	;r3 As==11
    79ac:	0b fd       	and	r13,	r11	
    79ae:	0c fe       	and	r14,	r12	
    79b0:	0b 93       	tst	r11		
    79b2:	48 24       	jz	$+146    	;abs 0x7a44
    79b4:	0b 46       	mov	r6,	r11	
    79b6:	0c 47       	mov	r7,	r12	
    79b8:	0b d8       	bis	r8,	r11	
    79ba:	0c d9       	bis	r9,	r12	
    79bc:	0e 4b       	mov	r11,	r14	
    79be:	0f 4c       	mov	r12,	r15	
    79c0:	3e f0 7f 00 	and	#127,	r14	;#0x007f
    79c4:	0f f3       	and	#0,	r15	;r3 As==00
    79c6:	3e 90 40 00 	cmp	#64,	r14	;#0x0040
    79ca:	2f 24       	jz	$+96     	;abs 0x7a2a
    79cc:	3b 50 3f 00 	add	#63,	r11	;#0x003f
    79d0:	0c 63       	adc	r12		
    79d2:	0d 4b       	mov	r11,	r13	
    79d4:	0e 4c       	mov	r12,	r14	
    79d6:	12 c3       	clrc			
    79d8:	0e 10       	rrc	r14		
    79da:	0d 10       	rrc	r13		
    79dc:	0e 11       	rra	r14		
    79de:	0d 10       	rrc	r13		
    79e0:	0e 11       	rra	r14		
    79e2:	0d 10       	rrc	r13		
    79e4:	0e 11       	rra	r14		
    79e6:	0d 10       	rrc	r13		
    79e8:	0e 11       	rra	r14		
    79ea:	0d 10       	rrc	r13		
    79ec:	0e 11       	rra	r14		
    79ee:	0d 10       	rrc	r13		
    79f0:	0e 11       	rra	r14		
    79f2:	0d 10       	rrc	r13		
    79f4:	3d f3       	and	#-1,	r13	;r3 As==11
    79f6:	3e f0 7f 00 	and	#127,	r14	;#0x007f
    79fa:	5f 43       	mov.b	#1,	r15	;r3 As==01
    79fc:	3c 90 00 40 	cmp	#16384,	r12	;#0x4000
    7a00:	86 2f       	jc	$-242    	;abs 0x790e
    7a02:	4f 43       	clr.b	r15		
    7a04:	84 3f       	jmp	$-246    	;abs 0x790e
    7a06:	0c 93       	tst	r12		
    7a08:	b1 23       	jnz	$-156    	;abs 0x796c
    7a0a:	63 3f       	jmp	$-312    	;abs 0x78d2
    7a0c:	7f 43       	mov.b	#-1,	r15	;r3 As==11
    7a0e:	0d 43       	clr	r13		
    7a10:	0e 43       	clr	r14		
    7a12:	7d 3f       	jmp	$-260    	;abs 0x790e
    7a14:	0d d3       	bis	#0,	r13	;r3 As==00
    7a16:	3e d0 10 00 	bis	#16,	r14	;#0x0010
    7a1a:	3d f3       	and	#-1,	r13	;r3 As==11
    7a1c:	3e f0 7f 00 	and	#127,	r14	;#0x007f
    7a20:	7f 43       	mov.b	#-1,	r15	;r3 As==11
    7a22:	75 3f       	jmp	$-276    	;abs 0x790e
    7a24:	0b 43       	clr	r11		
    7a26:	0c 43       	clr	r12		
    7a28:	d1 3f       	jmp	$-92     	;abs 0x79cc
    7a2a:	0f 93       	tst	r15		
    7a2c:	cf 23       	jnz	$-96     	;abs 0x79cc
    7a2e:	0e 4b       	mov	r11,	r14	
    7a30:	0f 4c       	mov	r12,	r15	
    7a32:	3e f0 80 00 	and	#128,	r14	;#0x0080
    7a36:	0f f3       	and	#0,	r15	;r3 As==00
    7a38:	0e 93       	tst	r14		
    7a3a:	09 24       	jz	$+20     	;abs 0x7a4e
    7a3c:	3b 50 40 00 	add	#64,	r11	;#0x0040
    7a40:	0c 63       	adc	r12		
    7a42:	c7 3f       	jmp	$-112    	;abs 0x79d2
    7a44:	0c 93       	tst	r12		
    7a46:	b6 23       	jnz	$-146    	;abs 0x79b4
    7a48:	08 43       	clr	r8		
    7a4a:	09 43       	clr	r9		
    7a4c:	b3 3f       	jmp	$-152    	;abs 0x79b4
    7a4e:	0f 93       	tst	r15		
    7a50:	f5 23       	jnz	$-20     	;abs 0x7a3c
    7a52:	bf 3f       	jmp	$-128    	;abs 0x79d2

00007a54 <__unpack_f>:
    7a54:	0b 12       	push	r11		
    7a56:	0a 12       	push	r10		
    7a58:	09 12       	push	r9		
    7a5a:	0b 4e       	mov	r14,	r11	
    7a5c:	2d 4f       	mov	@r15,	r13	
    7a5e:	5e 4f 02 00 	mov.b	2(r15),	r14	;0x0002(r15)
    7a62:	3e f0 7f 00 	and	#127,	r14	;#0x007f
    7a66:	1c 4f 02 00 	mov	2(r15),	r12	;0x0002(r15)
    7a6a:	12 c3       	clrc			
    7a6c:	0c 10       	rrc	r12		
    7a6e:	0c 11       	rra	r12		
    7a70:	0c 11       	rra	r12		
    7a72:	0c 11       	rra	r12		
    7a74:	0c 11       	rra	r12		
    7a76:	0c 11       	rra	r12		
    7a78:	12 c3       	clrc			
    7a7a:	0c 10       	rrc	r12		
    7a7c:	4c 4c       	mov.b	r12,	r12	
    7a7e:	5f 4f 03 00 	mov.b	3(r15),	r15	;0x0003(r15)
    7a82:	4f 5f       	rla.b	r15		
    7a84:	4f 43       	clr.b	r15		
    7a86:	4f 6f       	rlc.b	r15		
    7a88:	cb 4f 01 00 	mov.b	r15,	1(r11)	;0x0001(r11)
    7a8c:	0c 93       	tst	r12		
    7a8e:	34 20       	jnz	$+106    	;abs 0x7af8
    7a90:	0d 93       	tst	r13		
    7a92:	57 24       	jz	$+176    	;abs 0x7b42
    7a94:	bb 40 82 ff 02 00 	mov	#-126,	2(r11)	;#0xff82, 0x0002(r11)
    7a9a:	0d 5d       	rla	r13		
    7a9c:	0e 6e       	rlc	r14		
    7a9e:	0d 5d       	rla	r13		
    7aa0:	0e 6e       	rlc	r14		
    7aa2:	0d 5d       	rla	r13		
    7aa4:	0e 6e       	rlc	r14		
    7aa6:	0d 5d       	rla	r13		
    7aa8:	0e 6e       	rlc	r14		
    7aaa:	0d 5d       	rla	r13		
    7aac:	0e 6e       	rlc	r14		
    7aae:	0d 5d       	rla	r13		
    7ab0:	0e 6e       	rlc	r14		
    7ab2:	0d 5d       	rla	r13		
    7ab4:	0e 6e       	rlc	r14		
    7ab6:	0a 4d       	mov	r13,	r10	
    7ab8:	0f 4e       	mov	r14,	r15	
    7aba:	fb 40 03 00 00 00 	mov.b	#3,	0(r11)	;#0x0003, 0x0000(r11)
    7ac0:	3d 43       	mov	#-1,	r13	;r3 As==11
    7ac2:	3e 40 ff 3f 	mov	#16383,	r14	;#0x3fff
    7ac6:	0e 9f       	cmp	r15,	r14	
    7ac8:	0f 28       	jnc	$+32     	;abs 0x7ae8
    7aca:	3c 40 81 ff 	mov	#-127,	r12	;#0xff81
    7ace:	09 4e       	mov	r14,	r9	
    7ad0:	0d 4a       	mov	r10,	r13	
    7ad2:	0e 4f       	mov	r15,	r14	
    7ad4:	0d 5d       	rla	r13		
    7ad6:	0e 6e       	rlc	r14		
    7ad8:	0a 4d       	mov	r13,	r10	
    7ada:	0f 4e       	mov	r14,	r15	
    7adc:	0e 4c       	mov	r12,	r14	
    7ade:	3c 53       	add	#-1,	r12	;r3 As==11
    7ae0:	09 9f       	cmp	r15,	r9	
    7ae2:	f6 2f       	jc	$-18     	;abs 0x7ad0
    7ae4:	8b 4e 02 00 	mov	r14,	2(r11)	;0x0002(r11)
    7ae8:	8b 4a 04 00 	mov	r10,	4(r11)	;0x0004(r11)
    7aec:	8b 4f 06 00 	mov	r15,	6(r11)	;0x0006(r11)
    7af0:	39 41       	pop	r9		
    7af2:	3a 41       	pop	r10		
    7af4:	3b 41       	pop	r11		
    7af6:	30 41       	ret			
    7af8:	3c 90 ff 00 	cmp	#255,	r12	;#0x00ff
    7afc:	2a 24       	jz	$+86     	;abs 0x7b52
    7afe:	3c 50 81 ff 	add	#-127,	r12	;#0xff81
    7b02:	8b 4c 02 00 	mov	r12,	2(r11)	;0x0002(r11)
    7b06:	fb 40 03 00 00 00 	mov.b	#3,	0(r11)	;#0x0003, 0x0000(r11)
    7b0c:	0d 5d       	rla	r13		
    7b0e:	0e 6e       	rlc	r14		
    7b10:	0d 5d       	rla	r13		
    7b12:	0e 6e       	rlc	r14		
    7b14:	0d 5d       	rla	r13		
    7b16:	0e 6e       	rlc	r14		
    7b18:	0d 5d       	rla	r13		
    7b1a:	0e 6e       	rlc	r14		
    7b1c:	0d 5d       	rla	r13		
    7b1e:	0e 6e       	rlc	r14		
    7b20:	0d 5d       	rla	r13		
    7b22:	0e 6e       	rlc	r14		
    7b24:	0d 5d       	rla	r13		
    7b26:	0e 6e       	rlc	r14		
    7b28:	09 4d       	mov	r13,	r9	
    7b2a:	0a 4e       	mov	r14,	r10	
    7b2c:	09 d3       	bis	#0,	r9	;r3 As==00
    7b2e:	3a d0 00 40 	bis	#16384,	r10	;#0x4000
    7b32:	8b 49 04 00 	mov	r9,	4(r11)	;0x0004(r11)
    7b36:	8b 4a 06 00 	mov	r10,	6(r11)	;0x0006(r11)
    7b3a:	39 41       	pop	r9		
    7b3c:	3a 41       	pop	r10		
    7b3e:	3b 41       	pop	r11		
    7b40:	30 41       	ret			
    7b42:	0e 93       	tst	r14		
    7b44:	a7 23       	jnz	$-176    	;abs 0x7a94
    7b46:	eb 43 00 00 	mov.b	#2,	0(r11)	;r3 As==10, 0x0000(r11)
    7b4a:	39 41       	pop	r9		
    7b4c:	3a 41       	pop	r10		
    7b4e:	3b 41       	pop	r11		
    7b50:	30 41       	ret			
    7b52:	0d 93       	tst	r13		
    7b54:	0e 24       	jz	$+30     	;abs 0x7b72
    7b56:	09 4d       	mov	r13,	r9	
    7b58:	0a 4e       	mov	r14,	r10	
    7b5a:	09 f3       	and	#0,	r9	;r3 As==00
    7b5c:	3a f0 10 00 	and	#16,	r10	;#0x0010
    7b60:	09 93       	tst	r9		
    7b62:	0c 24       	jz	$+26     	;abs 0x7b7c
    7b64:	db 43 00 00 	mov.b	#1,	0(r11)	;r3 As==01, 0x0000(r11)
    7b68:	8b 4d 04 00 	mov	r13,	4(r11)	;0x0004(r11)
    7b6c:	8b 4e 06 00 	mov	r14,	6(r11)	;0x0006(r11)
    7b70:	e4 3f       	jmp	$-54     	;abs 0x7b3a
    7b72:	0e 93       	tst	r14		
    7b74:	f0 23       	jnz	$-30     	;abs 0x7b56
    7b76:	eb 42 00 00 	mov.b	#4,	0(r11)	;r2 As==10, 0x0000(r11)
    7b7a:	df 3f       	jmp	$-64     	;abs 0x7b3a
    7b7c:	0a 93       	tst	r10		
    7b7e:	f2 23       	jnz	$-26     	;abs 0x7b64
    7b80:	cb 43 00 00 	mov.b	#0,	0(r11)	;r3 As==00, 0x0000(r11)
    7b84:	f1 3f       	jmp	$-28     	;abs 0x7b68

00007b86 <__fpcmp_parts_f>:
    7b86:	0b 12       	push	r11		
    7b88:	6d 4f       	mov.b	@r15,	r13	
    7b8a:	5b 43       	mov.b	#1,	r11	;r3 As==01
    7b8c:	4b 9d       	cmp.b	r13,	r11	
    7b8e:	12 2c       	jc	$+38     	;abs 0x7bb4
    7b90:	6c 4e       	mov.b	@r14,	r12	
    7b92:	4b 9c       	cmp.b	r12,	r11	
    7b94:	0f 2c       	jc	$+32     	;abs 0x7bb4
    7b96:	6d 92       	cmp.b	#4,	r13	;r2 As==10
    7b98:	3f 24       	jz	$+128    	;abs 0x7c18
    7b9a:	6c 92       	cmp.b	#4,	r12	;r2 As==10
    7b9c:	11 24       	jz	$+36     	;abs 0x7bc0
    7b9e:	6d 93       	cmp.b	#2,	r13	;r3 As==10
    7ba0:	0d 24       	jz	$+28     	;abs 0x7bbc
    7ba2:	6c 93       	cmp.b	#2,	r12	;r3 As==10
    7ba4:	14 24       	jz	$+42     	;abs 0x7bce
    7ba6:	5d 4f 01 00 	mov.b	1(r15),	r13	;0x0001(r15)
    7baa:	5d 9e 01 00 	cmp.b	1(r14),	r13	;0x0001(r14)
    7bae:	14 24       	jz	$+42     	;abs 0x7bd8
    7bb0:	4d 93       	tst.b	r13		
    7bb2:	09 20       	jnz	$+20     	;abs 0x7bc6
    7bb4:	1e 43       	mov	#1,	r14	;r3 As==01
    7bb6:	0f 4e       	mov	r14,	r15	
    7bb8:	3b 41       	pop	r11		
    7bba:	30 41       	ret			
    7bbc:	4c 9d       	cmp.b	r13,	r12	
    7bbe:	26 24       	jz	$+78     	;abs 0x7c0c
    7bc0:	ce 93 01 00 	tst.b	1(r14)		;0x0001(r14)
    7bc4:	f7 23       	jnz	$-16     	;abs 0x7bb4
    7bc6:	3e 43       	mov	#-1,	r14	;r3 As==11
    7bc8:	0f 4e       	mov	r14,	r15	
    7bca:	3b 41       	pop	r11		
    7bcc:	30 41       	ret			
    7bce:	cf 93 01 00 	tst.b	1(r15)		;0x0001(r15)
    7bd2:	f0 27       	jz	$-30     	;abs 0x7bb4
    7bd4:	3e 43       	mov	#-1,	r14	;r3 As==11
    7bd6:	f8 3f       	jmp	$-14     	;abs 0x7bc8
    7bd8:	1b 4f 02 00 	mov	2(r15),	r11	;0x0002(r15)
    7bdc:	1c 4e 02 00 	mov	2(r14),	r12	;0x0002(r14)
    7be0:	0c 9b       	cmp	r11,	r12	
    7be2:	e6 3b       	jl	$-50     	;abs 0x7bb0
    7be4:	0b 9c       	cmp	r12,	r11	
    7be6:	14 38       	jl	$+42     	;abs 0x7c10
    7be8:	1b 4f 04 00 	mov	4(r15),	r11	;0x0004(r15)
    7bec:	1f 4f 06 00 	mov	6(r15),	r15	;0x0006(r15)
    7bf0:	1c 4e 04 00 	mov	4(r14),	r12	;0x0004(r14)
    7bf4:	1e 4e 06 00 	mov	6(r14),	r14	;0x0006(r14)
    7bf8:	0e 9f       	cmp	r15,	r14	
    7bfa:	da 2b       	jnc	$-74     	;abs 0x7bb0
    7bfc:	0f 9e       	cmp	r14,	r15	
    7bfe:	08 28       	jnc	$+18     	;abs 0x7c10
    7c00:	0c 9b       	cmp	r11,	r12	
    7c02:	d6 2b       	jnc	$-82     	;abs 0x7bb0
    7c04:	0e 9f       	cmp	r15,	r14	
    7c06:	02 28       	jnc	$+6      	;abs 0x7c0c
    7c08:	0b 9c       	cmp	r12,	r11	
    7c0a:	02 28       	jnc	$+6      	;abs 0x7c10
    7c0c:	0e 43       	clr	r14		
    7c0e:	d3 3f       	jmp	$-88     	;abs 0x7bb6
    7c10:	4d 93       	tst.b	r13		
    7c12:	d0 23       	jnz	$-94     	;abs 0x7bb4
    7c14:	3e 43       	mov	#-1,	r14	;r3 As==11
    7c16:	d8 3f       	jmp	$-78     	;abs 0x7bc8
    7c18:	4c 9d       	cmp.b	r13,	r12	
    7c1a:	d9 23       	jnz	$-76     	;abs 0x7bce
    7c1c:	5e 4e 01 00 	mov.b	1(r14),	r14	;0x0001(r14)
    7c20:	5f 4f 01 00 	mov.b	1(r15),	r15	;0x0001(r15)
    7c24:	0e 8f       	sub	r15,	r14	
    7c26:	c7 3f       	jmp	$-112    	;abs 0x7bb6

00007c28 <__clz_tab>:
    7c28:	00 01 02 02 03 03 03 03 04 04 04 04 04 04 04 04     ................
    7c38:	05 05 05 05 05 05 05 05 05 05 05 05 05 05 05 05     ................
    7c48:	06 06 06 06 06 06 06 06 06 06 06 06 06 06 06 06     ................
    7c58:	06 06 06 06 06 06 06 06 06 06 06 06 06 06 06 06     ................
    7c68:	07 07 07 07 07 07 07 07 07 07 07 07 07 07 07 07     ................
    7c78:	07 07 07 07 07 07 07 07 07 07 07 07 07 07 07 07     ................
    7c88:	07 07 07 07 07 07 07 07 07 07 07 07 07 07 07 07     ................
    7c98:	07 07 07 07 07 07 07 07 07 07 07 07 07 07 07 07     ................
    7ca8:	08 08 08 08 08 08 08 08 08 08 08 08 08 08 08 08     ................
    7cb8:	08 08 08 08 08 08 08 08 08 08 08 08 08 08 08 08     ................
    7cc8:	08 08 08 08 08 08 08 08 08 08 08 08 08 08 08 08     ................
    7cd8:	08 08 08 08 08 08 08 08 08 08 08 08 08 08 08 08     ................
    7ce8:	08 08 08 08 08 08 08 08 08 08 08 08 08 08 08 08     ................
    7cf8:	08 08 08 08 08 08 08 08 08 08 08 08 08 08 08 08     ................
    7d08:	08 08 08 08 08 08 08 08 08 08 08 08 08 08 08 08     ................
    7d18:	08 08 08 08 08 08 08 08 08 08 08 08 08 08 08 08     ................

00007d28 <memcmp>:
    7d28:	0b 12       	push	r11		
    7d2a:	0a 12       	push	r10		
    7d2c:	0d 93       	tst	r13		
    7d2e:	12 24       	jz	$+38     	;abs 0x7d54
    7d30:	0c 43       	clr	r12		
    7d32:	0b 4f       	mov	r15,	r11	
    7d34:	0b 5c       	add	r12,	r11	
    7d36:	6a 4b       	mov.b	@r11,	r10	
    7d38:	0b 4e       	mov	r14,	r11	
    7d3a:	0b 5c       	add	r12,	r11	
    7d3c:	6b 4b       	mov.b	@r11,	r11	
    7d3e:	4a 9b       	cmp.b	r11,	r10	
    7d40:	04 24       	jz	$+10     	;abs 0x7d4a
    7d42:	4f 4a       	mov.b	r10,	r15	
    7d44:	4e 4b       	mov.b	r11,	r14	
    7d46:	0f 8e       	sub	r14,	r15	
    7d48:	06 3c       	jmp	$+14     	;abs 0x7d56
    7d4a:	1c 53       	inc	r12		
    7d4c:	0d 9c       	cmp	r12,	r13	
    7d4e:	f1 23       	jnz	$-28     	;abs 0x7d32
    7d50:	0f 43       	clr	r15		
    7d52:	01 3c       	jmp	$+4      	;abs 0x7d56
    7d54:	0f 4d       	mov	r13,	r15	
    7d56:	3a 41       	pop	r10		
    7d58:	3b 41       	pop	r11		
    7d5a:	30 41       	ret			

00007d5c <memcpy>:
    7d5c:	0b 12       	push	r11		
    7d5e:	0a 12       	push	r10		
    7d60:	09 12       	push	r9		
    7d62:	08 12       	push	r8		
    7d64:	0d 93       	tst	r13		
    7d66:	77 24       	jz	$+240    	;abs 0x7e56
    7d68:	0b 4f       	mov	r15,	r11	
    7d6a:	0c 4e       	mov	r14,	r12	
    7d6c:	0f 9e       	cmp	r14,	r15	
    7d6e:	73 24       	jz	$+232    	;abs 0x7e56
    7d70:	0f 9e       	cmp	r14,	r15	
    7d72:	34 2c       	jc	$+106    	;abs 0x7ddc
    7d74:	0a 4e       	mov	r14,	r10	
    7d76:	0a df       	bis	r15,	r10	
    7d78:	1a f3       	and	#1,	r10	;r3 As==01
    7d7a:	1a 24       	jz	$+54     	;abs 0x7db0
    7d7c:	0c ef       	xor	r15,	r12	
    7d7e:	1c f3       	and	#1,	r12	;r3 As==01
    7d80:	08 20       	jnz	$+18     	;abs 0x7d92
    7d82:	1c 43       	mov	#1,	r12	;r3 As==01
    7d84:	0c 9d       	cmp	r13,	r12	
    7d86:	06 2c       	jc	$+14     	;abs 0x7d94
    7d88:	0b 4e       	mov	r14,	r11	
    7d8a:	0b fc       	and	r12,	r11	
    7d8c:	2c 43       	mov	#2,	r12	;r3 As==10
    7d8e:	0c 8b       	sub	r11,	r12	
    7d90:	01 3c       	jmp	$+4      	;abs 0x7d94
    7d92:	0c 4d       	mov	r13,	r12	
    7d94:	0d 8c       	sub	r12,	r13	
    7d96:	0b 43       	clr	r11		
    7d98:	0a 4f       	mov	r15,	r10	
    7d9a:	0a 5b       	add	r11,	r10	
    7d9c:	09 4e       	mov	r14,	r9	
    7d9e:	09 5b       	add	r11,	r9	
    7da0:	ea 49 00 00 	mov.b	@r9,	0(r10)	;0x0000(r10)
    7da4:	1b 53       	inc	r11		
    7da6:	0c 9b       	cmp	r11,	r12	
    7da8:	f7 23       	jnz	$-16     	;abs 0x7d98
    7daa:	0b 4f       	mov	r15,	r11	
    7dac:	0b 5c       	add	r12,	r11	
    7dae:	0c 5e       	add	r14,	r12	
    7db0:	0e 4d       	mov	r13,	r14	
    7db2:	12 c3       	clrc			
    7db4:	0e 10       	rrc	r14		
    7db6:	0e 93       	tst	r14		
    7db8:	0c 24       	jz	$+26     	;abs 0x7dd2
    7dba:	08 4e       	mov	r14,	r8	
    7dbc:	09 4c       	mov	r12,	r9	
    7dbe:	0a 4b       	mov	r11,	r10	
    7dc0:	aa 49 00 00 	mov	@r9,	0(r10)	;0x0000(r10)
    7dc4:	29 53       	incd	r9		
    7dc6:	2a 53       	incd	r10		
    7dc8:	38 53       	add	#-1,	r8	;r3 As==11
    7dca:	fa 23       	jnz	$-10     	;abs 0x7dc0
    7dcc:	0e 5e       	rla	r14		
    7dce:	0c 5e       	add	r14,	r12	
    7dd0:	0b 5e       	add	r14,	r11	
    7dd2:	1d f3       	and	#1,	r13	;r3 As==01
    7dd4:	40 24       	jz	$+130    	;abs 0x7e56
    7dd6:	eb 4c 00 00 	mov.b	@r12,	0(r11)	;0x0000(r11)
    7dda:	3d 3c       	jmp	$+124    	;abs 0x7e56
    7ddc:	0e 5d       	add	r13,	r14	
    7dde:	0c 4f       	mov	r15,	r12	
    7de0:	0c 5d       	add	r13,	r12	
    7de2:	0b 4c       	mov	r12,	r11	
    7de4:	0b de       	bis	r14,	r11	
    7de6:	1b f3       	and	#1,	r11	;r3 As==01
    7de8:	1b 24       	jz	$+56     	;abs 0x7e20
    7dea:	0b 4c       	mov	r12,	r11	
    7dec:	0b ee       	xor	r14,	r11	
    7dee:	1b f3       	and	#1,	r11	;r3 As==01
    7df0:	06 20       	jnz	$+14     	;abs 0x7dfe
    7df2:	3d 90 03 00 	cmp	#3,	r13	;#0x0003
    7df6:	03 28       	jnc	$+8      	;abs 0x7dfe
    7df8:	0b 4e       	mov	r14,	r11	
    7dfa:	1b f3       	and	#1,	r11	;r3 As==01
    7dfc:	01 3c       	jmp	$+4      	;abs 0x7e00
    7dfe:	0b 4d       	mov	r13,	r11	
    7e00:	0d 8b       	sub	r11,	r13	
    7e02:	0a 4b       	mov	r11,	r10	
    7e04:	3a 53       	add	#-1,	r10	;r3 As==11
    7e06:	3b e3       	inv	r11		
    7e08:	1b 53       	inc	r11		
    7e0a:	0c 5b       	add	r11,	r12	
    7e0c:	0e 5b       	add	r11,	r14	
    7e0e:	0b 4c       	mov	r12,	r11	
    7e10:	0b 5a       	add	r10,	r11	
    7e12:	09 4e       	mov	r14,	r9	
    7e14:	09 5a       	add	r10,	r9	
    7e16:	eb 49 00 00 	mov.b	@r9,	0(r11)	;0x0000(r11)
    7e1a:	3a 53       	add	#-1,	r10	;r3 As==11
    7e1c:	3a 93       	cmp	#-1,	r10	;r3 As==11
    7e1e:	f7 23       	jnz	$-16     	;abs 0x7e0e
    7e20:	0a 4d       	mov	r13,	r10	
    7e22:	12 c3       	clrc			
    7e24:	0a 10       	rrc	r10		
    7e26:	0a 93       	tst	r10		
    7e28:	11 24       	jz	$+36     	;abs 0x7e4c
    7e2a:	08 4a       	mov	r10,	r8	
    7e2c:	09 4e       	mov	r14,	r9	
    7e2e:	0b 4c       	mov	r12,	r11	
    7e30:	29 83       	decd	r9		
    7e32:	2b 83       	decd	r11		
    7e34:	ab 49 00 00 	mov	@r9,	0(r11)	;0x0000(r11)
    7e38:	38 53       	add	#-1,	r8	;r3 As==11
    7e3a:	fa 23       	jnz	$-10     	;abs 0x7e30
    7e3c:	0b 4a       	mov	r10,	r11	
    7e3e:	0b 11       	rra	r11		
    7e40:	0b 43       	clr	r11		
    7e42:	0b 10       	rrc	r11		
    7e44:	0b 8a       	sub	r10,	r11	
    7e46:	0b 5b       	rla	r11		
    7e48:	0e 5b       	add	r11,	r14	
    7e4a:	0c 5b       	add	r11,	r12	
    7e4c:	1d f3       	and	#1,	r13	;r3 As==01
    7e4e:	03 24       	jz	$+8      	;abs 0x7e56
    7e50:	dc 4e ff ff ff ff 	mov.b	-1(r14),-1(r12)	;0xffff(r14), 0xffff(r12)
    7e56:	38 41       	pop	r8		
    7e58:	39 41       	pop	r9		
    7e5a:	3a 41       	pop	r10		
    7e5c:	3b 41       	pop	r11		
    7e5e:	30 41       	ret			

00007e60 <memset>:
    7e60:	0b 12       	push	r11		
    7e62:	0a 12       	push	r10		
    7e64:	09 12       	push	r9		
    7e66:	08 12       	push	r8		
    7e68:	0b 4f       	mov	r15,	r11	
    7e6a:	3d 90 06 00 	cmp	#6,	r13	;#0x0006
    7e6e:	08 2c       	jc	$+18     	;abs 0x7e80
    7e70:	04 3c       	jmp	$+10     	;abs 0x7e7a
    7e72:	cb 4e 00 00 	mov.b	r14,	0(r11)	;0x0000(r11)
    7e76:	1b 53       	inc	r11		
    7e78:	3d 53       	add	#-1,	r13	;r3 As==11
    7e7a:	0d 93       	tst	r13		
    7e7c:	fa 23       	jnz	$-10     	;abs 0x7e72
    7e7e:	1e 3c       	jmp	$+62     	;abs 0x7ebc
    7e80:	4a 4e       	mov.b	r14,	r10	
    7e82:	0a 93       	tst	r10		
    7e84:	03 24       	jz	$+8      	;abs 0x7e8c
    7e86:	0c 4a       	mov	r10,	r12	
    7e88:	8c 10       	swpb	r12		
    7e8a:	0a dc       	bis	r12,	r10	
    7e8c:	1f b3       	bit	#1,	r15	;r3 As==01
    7e8e:	05 24       	jz	$+12     	;abs 0x7e9a
    7e90:	3d 53       	add	#-1,	r13	;r3 As==11
    7e92:	cf 4e 00 00 	mov.b	r14,	0(r15)	;0x0000(r15)
    7e96:	0b 4f       	mov	r15,	r11	
    7e98:	1b 53       	inc	r11		
    7e9a:	0c 4d       	mov	r13,	r12	
    7e9c:	12 c3       	clrc			
    7e9e:	0c 10       	rrc	r12		
    7ea0:	08 4b       	mov	r11,	r8	
    7ea2:	09 4c       	mov	r12,	r9	
    7ea4:	88 4a 00 00 	mov	r10,	0(r8)	;0x0000(r8)
    7ea8:	28 53       	incd	r8		
    7eaa:	39 53       	add	#-1,	r9	;r3 As==11
    7eac:	fb 23       	jnz	$-8      	;abs 0x7ea4
    7eae:	0c 5c       	rla	r12		
    7eb0:	0c 5b       	add	r11,	r12	
    7eb2:	1d f3       	and	#1,	r13	;r3 As==01
    7eb4:	0d 99       	cmp	r9,	r13	
    7eb6:	02 24       	jz	$+6      	;abs 0x7ebc
    7eb8:	cc 4e 00 00 	mov.b	r14,	0(r12)	;0x0000(r12)
    7ebc:	38 41       	pop	r8		
    7ebe:	39 41       	pop	r9		
    7ec0:	3a 41       	pop	r10		
    7ec2:	3b 41       	pop	r11		
    7ec4:	30 41       	ret			

00007ec6 <__umulsidi3>:
    7ec6:	06 43       	clr	r6		
    7ec8:	07 43       	clr	r7		
    7eca:	0a 43       	clr	r10		
    7ecc:	0b 43       	clr	r11		
    7ece:	30 40 0a 7f 	br	#0x7f0a	

00007ed2 <__udivmodqi4>:
    7ed2:	4e ee       	xor.b	r14,	r14	
    7ed4:	7b 40 09 00 	mov.b	#9,	r11	;#0x0009
    7ed8:	05 3c       	jmp	$+12     	;abs 0x7ee4
    7eda:	0d 10       	rrc	r13		
    7edc:	4e 6e       	rlc.b	r14		
    7ede:	4e 9a       	cmp.b	r10,	r14	
    7ee0:	01 28       	jnc	$+4      	;abs 0x7ee4
    7ee2:	4e 8a       	sub.b	r10,	r14	
    7ee4:	4c 6c       	rlc.b	r12		
    7ee6:	0d 6d       	rlc	r13		
    7ee8:	5b 83       	dec.b	r11		
    7eea:	f7 23       	jnz	$-16     	;abs 0x7eda
    7eec:	30 41       	ret			

00007eee <__udivmodhi4>:
    7eee:	0e ee       	xor	r14,	r14	
    7ef0:	3b 40 11 00 	mov	#17,	r11	;#0x0011
    7ef4:	05 3c       	jmp	$+12     	;abs 0x7f00
    7ef6:	0d 10       	rrc	r13		
    7ef8:	0e 6e       	rlc	r14		
    7efa:	0e 9a       	cmp	r10,	r14	
    7efc:	01 28       	jnc	$+4      	;abs 0x7f00
    7efe:	0e 8a       	sub	r10,	r14	
    7f00:	0c 6c       	rlc	r12		
    7f02:	0d 6d       	rlc	r13		
    7f04:	1b 83       	dec	r11		
    7f06:	f7 23       	jnz	$-16     	;abs 0x7ef6
    7f08:	30 41       	ret			

00007f0a <__muldi3>:
    7f0a:	0f 43       	clr	r15		
    7f0c:	0e 43       	clr	r14		
    7f0e:	0d 43       	clr	r13		
    7f10:	0c 43       	clr	r12		
    7f12:	82 48 30 01 	mov	r8,	&0x0130	
    7f16:	82 44 38 01 	mov	r4,	&0x0138	
    7f1a:	1c 42 3a 01 	mov	&0x013a,r12	
    7f1e:	92 42 3c 01 3a 01 	mov	&0x013c,&0x013a	
    7f24:	92 42 3e 01 3c 01 	mov	&0x013e,&0x013c	
    7f2a:	82 48 34 01 	mov	r8,	&0x0134	
    7f2e:	82 45 38 01 	mov	r5,	&0x0138	
    7f32:	82 49 34 01 	mov	r9,	&0x0134	
    7f36:	82 44 38 01 	mov	r4,	&0x0138	
    7f3a:	1d 42 3a 01 	mov	&0x013a,r13	
    7f3e:	92 42 3c 01 3a 01 	mov	&0x013c,&0x013a	
    7f44:	92 42 3e 01 3c 01 	mov	&0x013e,&0x013c	
    7f4a:	82 45 38 01 	mov	r5,	&0x0138	
    7f4e:	82 48 34 01 	mov	r8,	&0x0134	
    7f52:	82 46 38 01 	mov	r6,	&0x0138	
    7f56:	82 4a 34 01 	mov	r10,	&0x0134	
    7f5a:	82 44 38 01 	mov	r4,	&0x0138	
    7f5e:	1e 42 3a 01 	mov	&0x013a,r14	
    7f62:	92 42 3c 01 3a 01 	mov	&0x013c,&0x013a	
    7f68:	82 45 38 01 	mov	r5,	&0x0138	
    7f6c:	82 48 34 01 	mov	r8,	&0x0134	
    7f70:	82 47 38 01 	mov	r7,	&0x0138	
    7f74:	82 49 34 01 	mov	r9,	&0x0134	
    7f78:	82 46 38 01 	mov	r6,	&0x0138	
    7f7c:	82 4b 34 01 	mov	r11,	&0x0134	
    7f80:	82 44 38 01 	mov	r4,	&0x0138	
    7f84:	1f 42 3a 01 	mov	&0x013a,r15	
    7f88:	0c 4c       	mov	r12,	r12	
    7f8a:	0d 4d       	mov	r13,	r13	
    7f8c:	0e 4e       	mov	r14,	r14	
    7f8e:	0f 4f       	mov	r15,	r15	
    7f90:	30 41       	ret			

00007f92 <_unexpected_>:
    7f92:	00 13       	reti			

Disassembly of section .vectors:

0000ffe0 <__ivtbl_16>:
    ffe0:	f2 44 a0 6d f2 44 f2 44 ba 6c 54 6c 36 6c f2 44     .D.m.D.D.lTl6l.D
    fff0:	e8 6e 6a 6e f2 44 f2 44 96 6c 78 6c f2 44 00 40     .njn.D.D.lxl.D.@
